
PortableGameConsole.elf:     file format elf32-avr

Sections:
Idx Name          Size      VMA       LMA       File off  Algn
  0 .text         00003504  00000000  00000000  00000094  2**1
                  CONTENTS, ALLOC, LOAD, READONLY, CODE
  1 .data         00000094  00800060  00003504  00003598  2**0
                  CONTENTS, ALLOC, LOAD, DATA
  2 .bss          00000029  008000f4  008000f4  0000362c  2**0
                  ALLOC
  3 .comment      00000030  00000000  00000000  0000362c  2**0
                  CONTENTS, READONLY
  4 .note.gnu.avr.deviceinfo 0000003c  00000000  00000000  0000365c  2**2
                  CONTENTS, READONLY
  5 .debug_info   0000052e  00000000  00000000  00003698  2**0
                  CONTENTS, READONLY, DEBUGGING
  6 .debug_abbrev 000004e7  00000000  00000000  00003bc6  2**0
                  CONTENTS, READONLY, DEBUGGING
  7 .debug_line   0000001a  00000000  00000000  000040ad  2**0
                  CONTENTS, READONLY, DEBUGGING
  8 .debug_str    000001af  00000000  00000000  000040c7  2**0
                  CONTENTS, READONLY, DEBUGGING

Disassembly of section .text:

00000000 <__vectors>:
       0:	0c 94 40 04 	jmp	0x880	; 0x880 <__ctors_end>
       4:	0c 94 e6 11 	jmp	0x23cc	; 0x23cc <__vector_1>
       8:	0c 94 5d 04 	jmp	0x8ba	; 0x8ba <__bad_interrupt>
       c:	0c 94 5d 04 	jmp	0x8ba	; 0x8ba <__bad_interrupt>
      10:	0c 94 5d 04 	jmp	0x8ba	; 0x8ba <__bad_interrupt>
      14:	0c 94 5d 04 	jmp	0x8ba	; 0x8ba <__bad_interrupt>
      18:	0c 94 5d 04 	jmp	0x8ba	; 0x8ba <__bad_interrupt>
      1c:	0c 94 5d 04 	jmp	0x8ba	; 0x8ba <__bad_interrupt>
      20:	0c 94 5d 04 	jmp	0x8ba	; 0x8ba <__bad_interrupt>
      24:	0c 94 5d 04 	jmp	0x8ba	; 0x8ba <__bad_interrupt>
      28:	0c 94 5d 04 	jmp	0x8ba	; 0x8ba <__bad_interrupt>
      2c:	0c 94 5d 04 	jmp	0x8ba	; 0x8ba <__bad_interrupt>
      30:	0c 94 5d 04 	jmp	0x8ba	; 0x8ba <__bad_interrupt>
      34:	0c 94 5d 04 	jmp	0x8ba	; 0x8ba <__bad_interrupt>
      38:	0c 94 5d 04 	jmp	0x8ba	; 0x8ba <__bad_interrupt>
      3c:	0c 94 5d 04 	jmp	0x8ba	; 0x8ba <__bad_interrupt>
      40:	0c 94 5d 04 	jmp	0x8ba	; 0x8ba <__bad_interrupt>
      44:	0c 94 5d 04 	jmp	0x8ba	; 0x8ba <__bad_interrupt>
      48:	0c 94 5d 04 	jmp	0x8ba	; 0x8ba <__bad_interrupt>
      4c:	0c 94 5d 04 	jmp	0x8ba	; 0x8ba <__bad_interrupt>
      50:	0c 94 5d 04 	jmp	0x8ba	; 0x8ba <__bad_interrupt>
      54:	58 05       	cpc	r21, r8
      56:	5c 05       	cpc	r21, r12
      58:	60 05       	cpc	r22, r0
      5a:	64 05       	cpc	r22, r4
      5c:	6d 05       	cpc	r22, r13
      5e:	68 05       	cpc	r22, r8
      60:	77 05       	cpc	r23, r7
      62:	05 a8       	ldd	r0, Z+53	; 0x35
      64:	4c cd       	rjmp	.-1384   	; 0xfffffafe <__eeprom_end+0xff7efafe>
      66:	b2 d4       	rcall	.+2404   	; 0x9cc <ApplicationMenuShow+0x58>
      68:	4e b9       	out	0x0e, r20	; 14
      6a:	38 36       	cpi	r19, 0x68	; 104
      6c:	a9 02       	muls	r26, r25
      6e:	0c 50       	subi	r16, 0x0C	; 12
      70:	b9 91       	ld	r27, Y+
      72:	86 88       	ldd	r8, Z+22	; 0x16
      74:	08 3c       	cpi	r16, 0xC8	; 200
      76:	a6 aa       	std	Z+54, r10	; 0x36
      78:	aa 2a       	or	r10, r26
      7a:	be 00       	.word	0x00be	; ????
      7c:	00 00       	nop
      7e:	80 3f       	cpi	r24, 0xF0	; 240

00000080 <__trampolines_end>:
	...
      94:	00 00       	nop
      96:	00 0f       	add	r16, r16
      98:	08 08       	sbc	r0, r8
      9a:	08 08       	sbc	r0, r8
      9c:	08 08       	sbc	r0, r8
      9e:	08 00       	.word	0x0008	; ????
      a0:	00 00       	nop
      a2:	00 00       	nop
      a4:	00 00       	nop
      a6:	00 f8       	bld	r0, 0
      a8:	08 08       	sbc	r0, r8
      aa:	08 08       	sbc	r0, r8
      ac:	08 08       	sbc	r0, r8
      ae:	08 00       	.word	0x0008	; ????
      b0:	08 08       	sbc	r0, r8
      b2:	08 08       	sbc	r0, r8
      b4:	08 08       	sbc	r0, r8
      b6:	08 0f       	add	r16, r24
	...
      c0:	08 08       	sbc	r0, r8
      c2:	08 08       	sbc	r0, r8
      c4:	08 08       	sbc	r0, r8
      c6:	08 f8       	.word	0xf808	; ????
	...
      d0:	08 08       	sbc	r0, r8
      d2:	08 08       	sbc	r0, r8
      d4:	08 08       	sbc	r0, r8
      d6:	08 08       	sbc	r0, r8
      d8:	08 08       	sbc	r0, r8
      da:	08 08       	sbc	r0, r8
      dc:	08 08       	sbc	r0, r8
      de:	08 00       	.word	0x0008	; ????
      e0:	00 00       	nop
      e2:	00 00       	nop
      e4:	00 00       	nop
      e6:	00 ff       	sbrs	r16, 0
	...
      f0:	00 00       	nop
      f2:	00 18       	sub	r0, r0
      f4:	3c 7e       	andi	r19, 0xEC	; 236
      f6:	7e 7e       	andi	r23, 0xEE	; 238
      f8:	3c 18       	sub	r3, r12
      fa:	00 00       	nop
      fc:	00 00       	nop
      fe:	00 00       	nop
     100:	ff ff       	.word	0xffff	; ????
     102:	ff e7       	ldi	r31, 0x7F	; 127
     104:	c3 81       	ldd	r28, Z+3	; 0x03
     106:	81 81       	ldd	r24, Z+1	; 0x01
     108:	c3 e7       	ldi	r28, 0x73	; 115
     10a:	ff ff       	.word	0xffff	; ????
     10c:	ff ff       	.word	0xffff	; ????
     10e:	ff 00       	.word	0x00ff	; ????
	...
     130:	00 1f       	adc	r16, r16
     132:	05 05       	cpc	r16, r5
     134:	09 09       	sbc	r16, r9
     136:	10 10       	cpse	r1, r0
     138:	38 44       	sbci	r19, 0x48	; 72
     13a:	44 44       	sbci	r20, 0x44	; 68
     13c:	38 00       	.word	0x0038	; ????
     13e:	00 00       	nop
     140:	00 1c       	adc	r0, r0
     142:	22 22       	and	r2, r18
     144:	22 1c       	adc	r2, r2
     146:	08 08       	sbc	r0, r8
     148:	7f 08       	sbc	r7, r15
     14a:	08 08       	sbc	r0, r8
     14c:	08 00       	.word	0x0008	; ????
	...
     15e:	00 00       	nop
     160:	03 1d       	adc	r16, r3
     162:	11 13       	cpse	r17, r17
     164:	1d 11       	cpse	r17, r13
     166:	11 11       	cpse	r17, r1
     168:	13 17       	cp	r17, r19
     16a:	36 70       	andi	r19, 0x06	; 6
     16c:	60 00       	.word	0x0060	; ????
     16e:	00 00       	nop
     170:	08 08       	sbc	r0, r8
     172:	5d 22       	and	r5, r29
     174:	22 22       	and	r2, r18
     176:	63 22       	and	r6, r19
     178:	22 22       	and	r2, r18
     17a:	5d 08       	sbc	r5, r13
     17c:	08 00       	.word	0x0008	; ????
     17e:	00 00       	nop
     180:	08 08       	sbc	r0, r8
     182:	08 08       	sbc	r0, r8
     184:	08 08       	sbc	r0, r8
     186:	08 ff       	.word	0xff08	; ????
     188:	08 08       	sbc	r0, r8
     18a:	08 08       	sbc	r0, r8
     18c:	08 08       	sbc	r0, r8
     18e:	08 00       	.word	0x0008	; ????
     190:	00 01       	movw	r0, r0
     192:	03 07       	cpc	r16, r19
     194:	0f 1f       	adc	r16, r31
     196:	3f 7f       	andi	r19, 0xFF	; 255
     198:	3f 1f       	adc	r19, r31
     19a:	0f 07       	cpc	r16, r31
     19c:	03 01       	movw	r0, r6
     19e:	00 00       	nop
     1a0:	08 1c       	adc	r0, r8
     1a2:	2a 08       	sbc	r2, r10
     1a4:	08 08       	sbc	r0, r8
     1a6:	08 08       	sbc	r0, r8
     1a8:	08 08       	sbc	r0, r8
     1aa:	08 2a       	or	r0, r24
     1ac:	1c 08       	sbc	r1, r12
     1ae:	00 00       	nop
     1b0:	00 24       	eor	r0, r0
     1b2:	24 24       	eor	r2, r4
     1b4:	24 24       	eor	r2, r4
     1b6:	24 24       	eor	r2, r4
     1b8:	24 24       	eor	r2, r4
     1ba:	00 00       	nop
     1bc:	24 24       	eor	r2, r4
     1be:	00 00       	nop
     1c0:	00 1f       	adc	r16, r16
     1c2:	25 45       	sbci	r18, 0x55	; 85
     1c4:	45 45       	sbci	r20, 0x55	; 85
     1c6:	25 1d       	adc	r18, r5
     1c8:	05 05       	cpc	r16, r5
     1ca:	05 05       	cpc	r16, r5
     1cc:	05 00       	.word	0x0005	; ????
     1ce:	00 00       	nop
     1d0:	08 08       	sbc	r0, r8
     1d2:	08 08       	sbc	r0, r8
     1d4:	08 08       	sbc	r0, r8
     1d6:	08 ff       	.word	0xff08	; ????
	...
     1e4:	00 00       	nop
     1e6:	00 ff       	sbrs	r16, 0
     1e8:	08 08       	sbc	r0, r8
     1ea:	08 08       	sbc	r0, r8
     1ec:	08 08       	sbc	r0, r8
     1ee:	08 00       	.word	0x0008	; ????
     1f0:	08 08       	sbc	r0, r8
     1f2:	08 08       	sbc	r0, r8
     1f4:	08 08       	sbc	r0, r8
     1f6:	08 f8       	.word	0xf808	; ????
     1f8:	08 08       	sbc	r0, r8
     1fa:	08 08       	sbc	r0, r8
     1fc:	08 08       	sbc	r0, r8
     1fe:	08 00       	.word	0x0008	; ????
     200:	08 1c       	adc	r0, r8
     202:	2a 08       	sbc	r2, r10
     204:	08 08       	sbc	r0, r8
     206:	08 08       	sbc	r0, r8
     208:	08 08       	sbc	r0, r8
     20a:	08 08       	sbc	r0, r8
     20c:	08 08       	sbc	r0, r8
     20e:	00 00       	nop
     210:	08 08       	sbc	r0, r8
     212:	08 08       	sbc	r0, r8
     214:	08 08       	sbc	r0, r8
     216:	08 0f       	add	r16, r24
     218:	08 08       	sbc	r0, r8
     21a:	08 08       	sbc	r0, r8
     21c:	08 08       	sbc	r0, r8
     21e:	08 00       	.word	0x0008	; ????
     220:	00 00       	nop
     222:	00 00       	nop
     224:	00 04       	cpc	r0, r0
     226:	02 7f       	andi	r16, 0xF2	; 242
     228:	02 04       	cpc	r0, r2
	...
     232:	00 00       	nop
     234:	00 10       	cpse	r0, r0
     236:	20 7f       	andi	r18, 0xF0	; 240
     238:	20 10       	cpse	r2, r0
	...
     292:	10 10       	cpse	r1, r0
     294:	10 10       	cpse	r1, r0
     296:	10 10       	cpse	r1, r0
     298:	10 00       	.word	0x0010	; ????
     29a:	00 18       	sub	r0, r0
     29c:	18 00       	.word	0x0018	; ????
     29e:	00 00       	nop
     2a0:	12 36       	cpi	r17, 0x62	; 98
     2a2:	24 48       	sbci	r18, 0x84	; 132
	...
     2b0:	00 00       	nop
     2b2:	24 24       	eor	r2, r4
     2b4:	24 fe       	sbrs	r2, 4
     2b6:	48 48       	sbci	r20, 0x88	; 136
     2b8:	48 fe       	.word	0xfe48	; ????
     2ba:	48 48       	sbci	r20, 0x88	; 136
     2bc:	48 00       	.word	0x0048	; ????
     2be:	00 00       	nop
     2c0:	00 10       	cpse	r0, r0
     2c2:	38 54       	subi	r19, 0x48	; 72
     2c4:	54 50       	subi	r21, 0x04	; 4
     2c6:	30 18       	sub	r3, r0
     2c8:	14 14       	cp	r1, r4
     2ca:	54 54       	subi	r21, 0x44	; 68
     2cc:	38 10       	cpse	r3, r8
     2ce:	10 00       	.word	0x0010	; ????
     2d0:	00 00       	nop
     2d2:	44 a4       	ldd	r4, Z+44	; 0x2c
     2d4:	a8 a8       	ldd	r10, Y+48	; 0x30
     2d6:	a8 54       	subi	r26, 0x48	; 72
     2d8:	1a 2a       	or	r1, r26
     2da:	2a 2a       	or	r2, r26
     2dc:	44 00       	.word	0x0044	; ????
     2de:	00 00       	nop
     2e0:	00 00       	nop
     2e2:	30 48       	sbci	r19, 0x80	; 128
     2e4:	48 48       	sbci	r20, 0x88	; 136
     2e6:	50 6e       	ori	r21, 0xE0	; 224
     2e8:	a4 94       	.word	0x94a4	; ????
     2ea:	88 89       	ldd	r24, Y+16	; 0x10
     2ec:	76 00       	.word	0x0076	; ????
     2ee:	00 00       	nop
     2f0:	60 60       	ori	r22, 0x00	; 0
     2f2:	20 c0       	rjmp	.+64     	; 0x334 <__trampolines_end+0x2b4>
	...
     300:	02 04       	cpc	r0, r2
     302:	08 08       	sbc	r0, r8
     304:	10 10       	cpse	r1, r0
     306:	10 10       	cpse	r1, r0
     308:	10 10       	cpse	r1, r0
     30a:	08 08       	sbc	r0, r8
     30c:	04 02       	muls	r16, r20
     30e:	00 00       	nop
     310:	40 20       	and	r4, r0
     312:	10 10       	cpse	r1, r0
     314:	08 08       	sbc	r0, r8
     316:	08 08       	sbc	r0, r8
     318:	08 08       	sbc	r0, r8
     31a:	10 10       	cpse	r1, r0
     31c:	20 40       	sbci	r18, 0x00	; 0
     31e:	00 00       	nop
     320:	00 00       	nop
     322:	00 10       	cpse	r0, r0
     324:	10 d6       	rcall	.+3104   	; 0xf46 <SnakeNewFood+0x70>
     326:	38 38       	cpi	r19, 0x88	; 136
     328:	d6 10       	cpse	r13, r6
     32a:	10 00       	.word	0x0010	; ????
     32c:	00 00       	nop
     32e:	00 00       	nop
     330:	00 00       	nop
     332:	00 10       	cpse	r0, r0
     334:	10 10       	cpse	r1, r0
     336:	10 fe       	sbrs	r1, 0
     338:	10 10       	cpse	r1, r0
     33a:	10 10       	cpse	r1, r0
	...
     348:	00 00       	nop
     34a:	00 60       	ori	r16, 0x00	; 0
     34c:	60 20       	and	r6, r0
     34e:	c0 00       	.word	0x00c0	; ????
     350:	00 00       	nop
     352:	00 00       	nop
     354:	00 00       	nop
     356:	00 7f       	andi	r16, 0xF0	; 240
	...
     368:	00 00       	nop
     36a:	00 60       	ori	r16, 0x00	; 0
     36c:	60 00       	.word	0x0060	; ????
     36e:	00 00       	nop
     370:	00 01       	movw	r0, r0
     372:	02 02       	muls	r16, r18
     374:	04 04       	cpc	r0, r4
     376:	08 08       	sbc	r0, r8
     378:	10 10       	cpse	r1, r0
     37a:	20 20       	and	r2, r0
     37c:	40 40       	sbci	r20, 0x00	; 0
     37e:	00 00       	nop
     380:	00 00       	nop
     382:	18 24       	eor	r1, r8
     384:	42 42       	sbci	r20, 0x22	; 34
     386:	42 42       	sbci	r20, 0x22	; 34
     388:	42 42       	sbci	r20, 0x22	; 34
     38a:	42 24       	eor	r4, r2
     38c:	18 00       	.word	0x0018	; ????
     38e:	00 00       	nop
     390:	00 00       	nop
     392:	10 70       	andi	r17, 0x00	; 0
     394:	10 10       	cpse	r1, r0
     396:	10 10       	cpse	r1, r0
     398:	10 10       	cpse	r1, r0
     39a:	10 10       	cpse	r1, r0
     39c:	7c 00       	.word	0x007c	; ????
     39e:	00 00       	nop
     3a0:	00 00       	nop
     3a2:	3c 42       	sbci	r19, 0x2C	; 44
     3a4:	42 42       	sbci	r20, 0x22	; 34
     3a6:	04 04       	cpc	r0, r4
     3a8:	08 10       	cpse	r0, r8
     3aa:	20 42       	sbci	r18, 0x20	; 32
     3ac:	7e 00       	.word	0x007e	; ????
     3ae:	00 00       	nop
     3b0:	00 00       	nop
     3b2:	3c 42       	sbci	r19, 0x2C	; 44
     3b4:	42 04       	cpc	r4, r2
     3b6:	18 04       	cpc	r1, r8
     3b8:	02 02       	muls	r16, r18
     3ba:	42 44       	sbci	r20, 0x42	; 66
     3bc:	38 00       	.word	0x0038	; ????
     3be:	00 00       	nop
     3c0:	00 00       	nop
     3c2:	04 0c       	add	r0, r4
     3c4:	14 24       	eor	r1, r4
     3c6:	24 44       	sbci	r18, 0x44	; 68
     3c8:	44 7e       	andi	r20, 0xE4	; 228
     3ca:	04 04       	cpc	r0, r4
     3cc:	1e 00       	.word	0x001e	; ????
     3ce:	00 00       	nop
     3d0:	00 00       	nop
     3d2:	7e 40       	sbci	r23, 0x0E	; 14
     3d4:	40 40       	sbci	r20, 0x00	; 0
     3d6:	58 64       	ori	r21, 0x48	; 72
     3d8:	02 02       	muls	r16, r18
     3da:	42 44       	sbci	r20, 0x42	; 66
     3dc:	38 00       	.word	0x0038	; ????
     3de:	00 00       	nop
     3e0:	00 00       	nop
     3e2:	1c 24       	eor	r1, r12
     3e4:	40 40       	sbci	r20, 0x00	; 0
     3e6:	58 64       	ori	r21, 0x48	; 72
     3e8:	42 42       	sbci	r20, 0x22	; 34
     3ea:	42 24       	eor	r4, r2
     3ec:	18 00       	.word	0x0018	; ????
     3ee:	00 00       	nop
     3f0:	00 00       	nop
     3f2:	7e 44       	sbci	r23, 0x4E	; 78
     3f4:	44 08       	sbc	r4, r4
     3f6:	08 10       	cpse	r0, r8
     3f8:	10 10       	cpse	r1, r0
     3fa:	10 10       	cpse	r1, r0
     3fc:	10 00       	.word	0x0010	; ????
     3fe:	00 00       	nop
     400:	00 00       	nop
     402:	3c 42       	sbci	r19, 0x2C	; 44
     404:	42 42       	sbci	r20, 0x22	; 34
     406:	24 18       	sub	r2, r4
     408:	24 42       	sbci	r18, 0x24	; 36
     40a:	42 42       	sbci	r20, 0x22	; 34
     40c:	3c 00       	.word	0x003c	; ????
     40e:	00 00       	nop
     410:	00 00       	nop
     412:	18 24       	eor	r1, r8
     414:	42 42       	sbci	r20, 0x22	; 34
     416:	42 26       	eor	r4, r18
     418:	1a 02       	muls	r17, r26
     41a:	02 24       	eor	r0, r2
     41c:	38 00       	.word	0x0038	; ????
     41e:	00 00       	nop
     420:	00 00       	nop
     422:	00 00       	nop
     424:	00 18       	sub	r0, r0
     426:	18 00       	.word	0x0018	; ????
     428:	00 00       	nop
     42a:	00 18       	sub	r0, r0
     42c:	18 00       	.word	0x0018	; ????
	...
     436:	10 00       	.word	0x0010	; ????
     438:	00 00       	nop
     43a:	00 00       	nop
     43c:	10 10       	cpse	r1, r0
     43e:	20 00       	.word	0x0020	; ????
     440:	00 00       	nop
     442:	02 04       	cpc	r0, r2
     444:	08 10       	cpse	r0, r8
     446:	20 40       	sbci	r18, 0x00	; 0
     448:	20 10       	cpse	r2, r0
     44a:	08 04       	cpc	r0, r8
     44c:	02 00       	.word	0x0002	; ????
     44e:	00 00       	nop
     450:	00 00       	nop
     452:	00 00       	nop
     454:	00 fe       	sbrs	r0, 0
     456:	00 00       	nop
     458:	00 fe       	sbrs	r0, 0
	...
     462:	40 20       	and	r4, r0
     464:	10 08       	sbc	r1, r0
     466:	04 02       	muls	r16, r20
     468:	04 08       	sbc	r0, r4
     46a:	10 20       	and	r1, r0
     46c:	40 00       	.word	0x0040	; ????
     46e:	00 00       	nop
     470:	00 00       	nop
     472:	3c 42       	sbci	r19, 0x2C	; 44
     474:	42 62       	ori	r20, 0x22	; 34
     476:	02 04       	cpc	r0, r2
     478:	08 08       	sbc	r0, r8
     47a:	00 18       	sub	r0, r0
     47c:	18 00       	.word	0x0018	; ????
     47e:	00 00       	nop
     480:	00 00       	nop
     482:	38 44       	sbci	r19, 0x48	; 72
     484:	5a aa       	std	Y+50, r5	; 0x32
     486:	aa aa       	std	Y+50, r10	; 0x32
     488:	aa b4       	in	r10, 0x2a	; 42
     48a:	42 44       	sbci	r20, 0x42	; 66
     48c:	38 00       	.word	0x0038	; ????
     48e:	00 00       	nop
     490:	00 00       	nop
     492:	10 10       	cpse	r1, r0
     494:	18 28       	or	r1, r8
     496:	28 24       	eor	r2, r8
     498:	3c 44       	sbci	r19, 0x4C	; 76
     49a:	42 42       	sbci	r20, 0x22	; 34
     49c:	e7 00       	.word	0x00e7	; ????
     49e:	00 00       	nop
     4a0:	00 00       	nop
     4a2:	f8 44       	sbci	r31, 0x48	; 72
     4a4:	44 44       	sbci	r20, 0x44	; 68
     4a6:	78 44       	sbci	r23, 0x48	; 72
     4a8:	42 42       	sbci	r20, 0x22	; 34
     4aa:	42 44       	sbci	r20, 0x42	; 66
     4ac:	f8 00       	.word	0x00f8	; ????
     4ae:	00 00       	nop
     4b0:	00 00       	nop
     4b2:	3e 42       	sbci	r19, 0x2E	; 46
     4b4:	42 80       	ldd	r4, Z+2	; 0x02
     4b6:	80 80       	ld	r8, Z
     4b8:	80 80       	ld	r8, Z
     4ba:	42 44       	sbci	r20, 0x42	; 66
     4bc:	38 00       	.word	0x0038	; ????
     4be:	00 00       	nop
     4c0:	00 00       	nop
     4c2:	f8 44       	sbci	r31, 0x48	; 72
     4c4:	42 42       	sbci	r20, 0x22	; 34
     4c6:	42 42       	sbci	r20, 0x22	; 34
     4c8:	42 42       	sbci	r20, 0x22	; 34
     4ca:	42 44       	sbci	r20, 0x42	; 66
     4cc:	f8 00       	.word	0x00f8	; ????
     4ce:	00 00       	nop
     4d0:	00 00       	nop
     4d2:	fc 42       	sbci	r31, 0x2C	; 44
     4d4:	48 48       	sbci	r20, 0x88	; 136
     4d6:	78 48       	sbci	r23, 0x88	; 136
     4d8:	48 40       	sbci	r20, 0x08	; 8
     4da:	42 42       	sbci	r20, 0x22	; 34
     4dc:	fc 00       	.word	0x00fc	; ????
     4de:	00 00       	nop
     4e0:	00 00       	nop
     4e2:	fc 42       	sbci	r31, 0x2C	; 44
     4e4:	48 48       	sbci	r20, 0x88	; 136
     4e6:	78 48       	sbci	r23, 0x88	; 136
     4e8:	48 40       	sbci	r20, 0x08	; 8
     4ea:	40 40       	sbci	r20, 0x00	; 0
     4ec:	e0 00       	.word	0x00e0	; ????
     4ee:	00 00       	nop
     4f0:	00 00       	nop
     4f2:	3c 44       	sbci	r19, 0x4C	; 76
     4f4:	44 80       	ldd	r4, Z+4	; 0x04
     4f6:	80 80       	ld	r8, Z
     4f8:	8e 84       	ldd	r8, Y+14	; 0x0e
     4fa:	44 44       	sbci	r20, 0x44	; 68
     4fc:	38 00       	.word	0x0038	; ????
     4fe:	00 00       	nop
     500:	00 00       	nop
     502:	e7 42       	sbci	r30, 0x27	; 39
     504:	42 42       	sbci	r20, 0x22	; 34
     506:	42 7e       	andi	r20, 0xE2	; 226
     508:	42 42       	sbci	r20, 0x22	; 34
     50a:	42 42       	sbci	r20, 0x22	; 34
     50c:	e7 00       	.word	0x00e7	; ????
     50e:	00 00       	nop
     510:	00 00       	nop
     512:	7c 10       	cpse	r7, r12
     514:	10 10       	cpse	r1, r0
     516:	10 10       	cpse	r1, r0
     518:	10 10       	cpse	r1, r0
     51a:	10 10       	cpse	r1, r0
     51c:	7c 00       	.word	0x007c	; ????
     51e:	00 00       	nop
     520:	00 00       	nop
     522:	3e 08       	sbc	r3, r14
     524:	08 08       	sbc	r0, r8
     526:	08 08       	sbc	r0, r8
     528:	08 08       	sbc	r0, r8
     52a:	08 08       	sbc	r0, r8
     52c:	08 88       	ldd	r0, Y+16	; 0x10
     52e:	f0 00       	.word	0x00f0	; ????
     530:	00 00       	nop
     532:	ee 44       	sbci	r30, 0x4E	; 78
     534:	48 50       	subi	r20, 0x08	; 8
     536:	70 50       	subi	r23, 0x00	; 0
     538:	48 48       	sbci	r20, 0x88	; 136
     53a:	44 44       	sbci	r20, 0x44	; 68
     53c:	ee 00       	.word	0x00ee	; ????
     53e:	00 00       	nop
     540:	00 00       	nop
     542:	e0 40       	sbci	r30, 0x00	; 0
     544:	40 40       	sbci	r20, 0x00	; 0
     546:	40 40       	sbci	r20, 0x00	; 0
     548:	40 40       	sbci	r20, 0x00	; 0
     54a:	40 42       	sbci	r20, 0x20	; 32
     54c:	fe 00       	.word	0x00fe	; ????
     54e:	00 00       	nop
     550:	00 00       	nop
     552:	ee 6c       	ori	r30, 0xCE	; 206
     554:	6c 6c       	ori	r22, 0xCC	; 204
     556:	6c 54       	subi	r22, 0x4C	; 76
     558:	54 54       	subi	r21, 0x44	; 68
     55a:	54 54       	subi	r21, 0x44	; 68
     55c:	d6 00       	.word	0x00d6	; ????
     55e:	00 00       	nop
     560:	00 00       	nop
     562:	c7 62       	ori	r28, 0x27	; 39
     564:	62 52       	subi	r22, 0x22	; 34
     566:	52 4a       	sbci	r21, 0xA2	; 162
     568:	4a 4a       	sbci	r20, 0xAA	; 170
     56a:	46 46       	sbci	r20, 0x66	; 102
     56c:	e2 00       	.word	0x00e2	; ????
     56e:	00 00       	nop
     570:	00 00       	nop
     572:	38 44       	sbci	r19, 0x48	; 72
     574:	82 82       	std	Z+2, r8	; 0x02
     576:	82 82       	std	Z+2, r8	; 0x02
     578:	82 82       	std	Z+2, r8	; 0x02
     57a:	82 44       	sbci	r24, 0x42	; 66
     57c:	38 00       	.word	0x0038	; ????
     57e:	00 00       	nop
     580:	00 00       	nop
     582:	fc 42       	sbci	r31, 0x2C	; 44
     584:	42 42       	sbci	r20, 0x22	; 34
     586:	42 7c       	andi	r20, 0xC2	; 194
     588:	40 40       	sbci	r20, 0x00	; 0
     58a:	40 40       	sbci	r20, 0x00	; 0
     58c:	e0 00       	.word	0x00e0	; ????
     58e:	00 00       	nop
     590:	00 00       	nop
     592:	38 44       	sbci	r19, 0x48	; 72
     594:	82 82       	std	Z+2, r8	; 0x02
     596:	82 82       	std	Z+2, r8	; 0x02
     598:	82 b2       	in	r8, 0x12	; 18
     59a:	ca 4c       	sbci	r28, 0xCA	; 202
     59c:	38 06       	cpc	r3, r24
     59e:	00 00       	nop
     5a0:	00 00       	nop
     5a2:	fc 42       	sbci	r31, 0x2C	; 44
     5a4:	42 42       	sbci	r20, 0x22	; 34
     5a6:	7c 48       	sbci	r23, 0x8C	; 140
     5a8:	48 44       	sbci	r20, 0x48	; 72
     5aa:	44 42       	sbci	r20, 0x24	; 36
     5ac:	e3 00       	.word	0x00e3	; ????
     5ae:	00 00       	nop
     5b0:	00 00       	nop
     5b2:	3e 42       	sbci	r19, 0x2E	; 46
     5b4:	42 40       	sbci	r20, 0x02	; 2
     5b6:	20 18       	sub	r2, r0
     5b8:	04 02       	muls	r16, r20
     5ba:	42 42       	sbci	r20, 0x22	; 34
     5bc:	7c 00       	.word	0x007c	; ????
     5be:	00 00       	nop
     5c0:	00 00       	nop
     5c2:	fe 92       	st	-X, r15
     5c4:	10 10       	cpse	r1, r0
     5c6:	10 10       	cpse	r1, r0
     5c8:	10 10       	cpse	r1, r0
     5ca:	10 10       	cpse	r1, r0
     5cc:	38 00       	.word	0x0038	; ????
     5ce:	00 00       	nop
     5d0:	00 00       	nop
     5d2:	e7 42       	sbci	r30, 0x27	; 39
     5d4:	42 42       	sbci	r20, 0x22	; 34
     5d6:	42 42       	sbci	r20, 0x22	; 34
     5d8:	42 42       	sbci	r20, 0x22	; 34
     5da:	42 42       	sbci	r20, 0x22	; 34
     5dc:	3c 00       	.word	0x003c	; ????
     5de:	00 00       	nop
     5e0:	00 00       	nop
     5e2:	e7 42       	sbci	r30, 0x27	; 39
     5e4:	42 44       	sbci	r20, 0x42	; 66
     5e6:	24 24       	eor	r2, r4
     5e8:	28 28       	or	r2, r8
     5ea:	18 10       	cpse	r1, r8
     5ec:	10 00       	.word	0x0010	; ????
     5ee:	00 00       	nop
     5f0:	00 00       	nop
     5f2:	d6 92       	lac	Z, r13
     5f4:	92 92       	st	-Z, r9
     5f6:	92 aa       	std	Z+50, r9	; 0x32
     5f8:	aa 6c       	ori	r26, 0xCA	; 202
     5fa:	44 44       	sbci	r20, 0x44	; 68
     5fc:	44 00       	.word	0x0044	; ????
     5fe:	00 00       	nop
     600:	00 00       	nop
     602:	e7 42       	sbci	r30, 0x27	; 39
     604:	24 24       	eor	r2, r4
     606:	18 18       	sub	r1, r8
     608:	18 24       	eor	r1, r8
     60a:	24 42       	sbci	r18, 0x24	; 36
     60c:	e7 00       	.word	0x00e7	; ????
     60e:	00 00       	nop
     610:	00 00       	nop
     612:	ee 44       	sbci	r30, 0x4E	; 78
     614:	44 28       	or	r4, r4
     616:	28 10       	cpse	r2, r8
     618:	10 10       	cpse	r1, r0
     61a:	10 10       	cpse	r1, r0
     61c:	38 00       	.word	0x0038	; ????
     61e:	00 00       	nop
     620:	00 00       	nop
     622:	7e 84       	ldd	r7, Y+14	; 0x0e
     624:	04 08       	sbc	r0, r4
     626:	08 10       	cpse	r0, r8
     628:	20 20       	and	r2, r0
     62a:	42 42       	sbci	r20, 0x22	; 34
     62c:	fc 00       	.word	0x00fc	; ????
     62e:	00 00       	nop
     630:	1e 10       	cpse	r1, r14
     632:	10 10       	cpse	r1, r0
     634:	10 10       	cpse	r1, r0
     636:	10 10       	cpse	r1, r0
     638:	10 10       	cpse	r1, r0
     63a:	10 10       	cpse	r1, r0
     63c:	10 1e       	adc	r1, r16
     63e:	00 00       	nop
     640:	00 40       	sbci	r16, 0x00	; 0
     642:	40 20       	and	r4, r0
     644:	20 10       	cpse	r2, r0
     646:	10 10       	cpse	r1, r0
     648:	08 08       	sbc	r0, r8
     64a:	04 04       	cpc	r0, r4
     64c:	04 02       	muls	r16, r20
     64e:	02 00       	.word	0x0002	; ????
     650:	78 08       	sbc	r7, r8
     652:	08 08       	sbc	r0, r8
     654:	08 08       	sbc	r0, r8
     656:	08 08       	sbc	r0, r8
     658:	08 08       	sbc	r0, r8
     65a:	08 08       	sbc	r0, r8
     65c:	08 78       	andi	r16, 0x88	; 136
     65e:	00 00       	nop
     660:	1c 22       	and	r1, r28
	...
     67e:	ff 00       	.word	0x00ff	; ????
     680:	60 10       	cpse	r6, r0
	...
     696:	3c 42       	sbci	r19, 0x2C	; 44
     698:	1e 22       	and	r1, r30
     69a:	42 42       	sbci	r20, 0x22	; 34
     69c:	3f 00       	.word	0x003f	; ????
     69e:	00 00       	nop
     6a0:	00 00       	nop
     6a2:	c0 40       	sbci	r28, 0x00	; 0
     6a4:	40 40       	sbci	r20, 0x00	; 0
     6a6:	58 64       	ori	r21, 0x48	; 72
     6a8:	42 42       	sbci	r20, 0x22	; 34
     6aa:	42 64       	ori	r20, 0x42	; 66
     6ac:	58 00       	.word	0x0058	; ????
	...
     6b6:	1c 22       	and	r1, r28
     6b8:	40 40       	sbci	r20, 0x00	; 0
     6ba:	40 22       	and	r4, r16
     6bc:	1c 00       	.word	0x001c	; ????
     6be:	00 00       	nop
     6c0:	00 00       	nop
     6c2:	06 02       	muls	r16, r22
     6c4:	02 02       	muls	r16, r18
     6c6:	1e 22       	and	r1, r30
     6c8:	42 42       	sbci	r20, 0x22	; 34
     6ca:	42 26       	eor	r4, r18
     6cc:	1b 00       	.word	0x001b	; ????
	...
     6d6:	3c 42       	sbci	r19, 0x2C	; 44
     6d8:	7e 40       	sbci	r23, 0x0E	; 14
     6da:	40 42       	sbci	r20, 0x20	; 32
     6dc:	3c 00       	.word	0x003c	; ????
     6de:	00 00       	nop
     6e0:	00 00       	nop
     6e2:	0f 11       	cpse	r16, r15
     6e4:	10 10       	cpse	r1, r0
     6e6:	7e 10       	cpse	r7, r14
     6e8:	10 10       	cpse	r1, r0
     6ea:	10 10       	cpse	r1, r0
     6ec:	7c 00       	.word	0x007c	; ????
	...
     6f6:	3e 44       	sbci	r19, 0x4E	; 78
     6f8:	44 38       	cpi	r20, 0x84	; 132
     6fa:	40 3c       	cpi	r20, 0xC0	; 192
     6fc:	42 42       	sbci	r20, 0x22	; 34
     6fe:	3c 00       	.word	0x003c	; ????
     700:	00 00       	nop
     702:	c0 40       	sbci	r28, 0x00	; 0
     704:	40 40       	sbci	r20, 0x00	; 0
     706:	5c 62       	ori	r21, 0x2C	; 44
     708:	42 42       	sbci	r20, 0x22	; 34
     70a:	42 42       	sbci	r20, 0x22	; 34
     70c:	e7 00       	.word	0x00e7	; ????
     70e:	00 00       	nop
     710:	00 00       	nop
     712:	30 30       	cpi	r19, 0x00	; 0
     714:	00 00       	nop
     716:	70 10       	cpse	r7, r0
     718:	10 10       	cpse	r1, r0
     71a:	10 10       	cpse	r1, r0
     71c:	7c 00       	.word	0x007c	; ????
     71e:	00 00       	nop
     720:	00 00       	nop
     722:	0c 0c       	add	r0, r12
     724:	00 00       	nop
     726:	1c 04       	cpc	r1, r12
     728:	04 04       	cpc	r0, r4
     72a:	04 04       	cpc	r0, r4
     72c:	04 44       	sbci	r16, 0x44	; 68
     72e:	78 00       	.word	0x0078	; ????
     730:	00 00       	nop
     732:	c0 40       	sbci	r28, 0x00	; 0
     734:	40 40       	sbci	r20, 0x00	; 0
     736:	4e 48       	sbci	r20, 0x8E	; 142
     738:	50 68       	ori	r21, 0x80	; 128
     73a:	48 44       	sbci	r20, 0x48	; 72
     73c:	ee 00       	.word	0x00ee	; ????
     73e:	00 00       	nop
     740:	00 00       	nop
     742:	70 10       	cpse	r7, r0
     744:	10 10       	cpse	r1, r0
     746:	10 10       	cpse	r1, r0
     748:	10 10       	cpse	r1, r0
     74a:	10 10       	cpse	r1, r0
     74c:	7c 00       	.word	0x007c	; ????
	...
     756:	fe 49       	sbci	r31, 0x9E	; 158
     758:	49 49       	sbci	r20, 0x99	; 153
     75a:	49 49       	sbci	r20, 0x99	; 153
     75c:	ed 00       	.word	0x00ed	; ????
	...
     766:	dc 62       	ori	r29, 0x2C	; 44
     768:	42 42       	sbci	r20, 0x22	; 34
     76a:	42 42       	sbci	r20, 0x22	; 34
     76c:	e7 00       	.word	0x00e7	; ????
	...
     776:	3c 42       	sbci	r19, 0x2C	; 44
     778:	42 42       	sbci	r20, 0x22	; 34
     77a:	42 42       	sbci	r20, 0x22	; 34
     77c:	3c 00       	.word	0x003c	; ????
	...
     786:	d8 64       	ori	r29, 0x48	; 72
     788:	42 42       	sbci	r20, 0x22	; 34
     78a:	42 44       	sbci	r20, 0x42	; 66
     78c:	78 40       	sbci	r23, 0x08	; 8
     78e:	e0 00       	.word	0x00e0	; ????
     790:	00 00       	nop
     792:	00 00       	nop
     794:	00 00       	nop
     796:	1e 22       	and	r1, r30
     798:	42 42       	sbci	r20, 0x22	; 34
     79a:	42 22       	and	r4, r18
     79c:	1e 02       	muls	r17, r30
     79e:	07 00       	.word	0x0007	; ????
     7a0:	00 00       	nop
     7a2:	00 00       	nop
     7a4:	00 00       	nop
     7a6:	ee 32       	cpi	r30, 0x2E	; 46
     7a8:	20 20       	and	r2, r0
     7aa:	20 20       	and	r2, r0
     7ac:	f8 00       	.word	0x00f8	; ????
	...
     7b6:	3e 42       	sbci	r19, 0x2E	; 46
     7b8:	40 3c       	cpi	r20, 0xC0	; 192
     7ba:	02 42       	sbci	r16, 0x22	; 34
     7bc:	7c 00       	.word	0x007c	; ????
     7be:	00 00       	nop
     7c0:	00 00       	nop
     7c2:	00 00       	nop
     7c4:	10 10       	cpse	r1, r0
     7c6:	7c 10       	cpse	r7, r12
     7c8:	10 10       	cpse	r1, r0
     7ca:	10 10       	cpse	r1, r0
     7cc:	0c 00       	.word	0x000c	; ????
	...
     7d6:	c6 42       	sbci	r28, 0x26	; 38
     7d8:	42 42       	sbci	r20, 0x22	; 34
     7da:	42 46       	sbci	r20, 0x62	; 98
     7dc:	3b 00       	.word	0x003b	; ????
	...
     7e6:	e7 42       	sbci	r30, 0x27	; 39
     7e8:	24 24       	eor	r2, r4
     7ea:	28 10       	cpse	r2, r8
     7ec:	10 00       	.word	0x0010	; ????
	...
     7f6:	d7 92       	lat	Z, r13
     7f8:	92 aa       	std	Z+50, r9	; 0x32
     7fa:	aa 44       	sbci	r26, 0x4A	; 74
     7fc:	44 00       	.word	0x0044	; ????
	...
     806:	6e 24       	eor	r6, r14
     808:	18 18       	sub	r1, r8
     80a:	18 24       	eor	r1, r8
     80c:	76 00       	.word	0x0076	; ????
	...
     816:	e7 42       	sbci	r30, 0x27	; 39
     818:	24 24       	eor	r2, r4
     81a:	28 18       	sub	r2, r8
     81c:	10 10       	cpse	r1, r0
     81e:	e0 00       	.word	0x00e0	; ????
     820:	00 00       	nop
     822:	00 00       	nop
     824:	00 00       	nop
     826:	7e 44       	sbci	r23, 0x4E	; 78
     828:	08 10       	cpse	r0, r8
     82a:	10 22       	and	r1, r16
     82c:	7e 00       	.word	0x007e	; ????
     82e:	00 00       	nop
     830:	03 04       	cpc	r0, r3
     832:	04 04       	cpc	r0, r4
     834:	04 04       	cpc	r0, r4
     836:	08 04       	cpc	r0, r8
     838:	04 04       	cpc	r0, r4
     83a:	04 04       	cpc	r0, r4
     83c:	04 03       	mulsu	r16, r20
     83e:	00 00       	nop
     840:	08 08       	sbc	r0, r8
     842:	08 08       	sbc	r0, r8
     844:	08 08       	sbc	r0, r8
     846:	08 08       	sbc	r0, r8
     848:	08 08       	sbc	r0, r8
     84a:	08 08       	sbc	r0, r8
     84c:	08 08       	sbc	r0, r8
     84e:	08 00       	.word	0x0008	; ????
     850:	60 10       	cpse	r6, r0
     852:	10 10       	cpse	r1, r0
     854:	10 10       	cpse	r1, r0
     856:	08 10       	cpse	r0, r8
     858:	10 10       	cpse	r1, r0
     85a:	10 10       	cpse	r1, r0
     85c:	10 60       	ori	r17, 0x00	; 0
     85e:	00 00       	nop
     860:	4c 43       	sbci	r20, 0x3C	; 60
	...

00000880 <__ctors_end>:
     880:	11 24       	eor	r1, r1
     882:	1f be       	out	0x3f, r1	; 63
     884:	cf e5       	ldi	r28, 0x5F	; 95
     886:	d4 e0       	ldi	r29, 0x04	; 4
     888:	de bf       	out	0x3e, r29	; 62
     88a:	cd bf       	out	0x3d, r28	; 61

0000088c <__do_copy_data>:
     88c:	10 e0       	ldi	r17, 0x00	; 0
     88e:	a0 e6       	ldi	r26, 0x60	; 96
     890:	b0 e0       	ldi	r27, 0x00	; 0
     892:	e4 e0       	ldi	r30, 0x04	; 4
     894:	f5 e3       	ldi	r31, 0x35	; 53
     896:	02 c0       	rjmp	.+4      	; 0x89c <__do_copy_data+0x10>
     898:	05 90       	lpm	r0, Z+
     89a:	0d 92       	st	X+, r0
     89c:	a4 3f       	cpi	r26, 0xF4	; 244
     89e:	b1 07       	cpc	r27, r17
     8a0:	d9 f7       	brne	.-10     	; 0x898 <__do_copy_data+0xc>

000008a2 <__do_clear_bss>:
     8a2:	21 e0       	ldi	r18, 0x01	; 1
     8a4:	a4 ef       	ldi	r26, 0xF4	; 244
     8a6:	b0 e0       	ldi	r27, 0x00	; 0
     8a8:	01 c0       	rjmp	.+2      	; 0x8ac <.do_clear_bss_start>

000008aa <.do_clear_bss_loop>:
     8aa:	1d 92       	st	X+, r1

000008ac <.do_clear_bss_start>:
     8ac:	ad 31       	cpi	r26, 0x1D	; 29
     8ae:	b2 07       	cpc	r27, r18
     8b0:	e1 f7       	brne	.-8      	; 0x8aa <.do_clear_bss_loop>
     8b2:	0e 94 5c 14 	call	0x28b8	; 0x28b8 <main>
     8b6:	0c 94 80 1a 	jmp	0x3500	; 0x3500 <_exit>

000008ba <__bad_interrupt>:
     8ba:	0c 94 00 00 	jmp	0	; 0x0 <__vectors>

000008be <time>:
     8be:	fc 01       	movw	r30, r24
     8c0:	0f b6       	in	r0, 0x3f	; 63
     8c2:	f8 94       	cli
     8c4:	60 91 19 01 	lds	r22, 0x0119	; 0x800119 <__system_time>
     8c8:	70 91 1a 01 	lds	r23, 0x011A	; 0x80011a <__system_time+0x1>
     8cc:	80 91 1b 01 	lds	r24, 0x011B	; 0x80011b <__system_time+0x2>
     8d0:	90 91 1c 01 	lds	r25, 0x011C	; 0x80011c <__system_time+0x3>
     8d4:	0f be       	out	0x3f, r0	; 63
     8d6:	30 97       	sbiw	r30, 0x00	; 0
     8d8:	21 f0       	breq	.+8      	; 0x8e2 <time+0x24>
     8da:	60 83       	st	Z, r22
     8dc:	71 83       	std	Z+1, r23	; 0x01
     8de:	82 83       	std	Z+2, r24	; 0x02
     8e0:	93 83       	std	Z+3, r25	; 0x03
     8e2:	08 95       	ret

000008e4 <ToolsRandom>:
     8e4:	0f 93       	push	r16
     8e6:	1f 93       	push	r17
     8e8:	cf 93       	push	r28
     8ea:	df 93       	push	r29
     8ec:	ec 01       	movw	r28, r24
     8ee:	68 17       	cp	r22, r24
     8f0:	79 07       	cpc	r23, r25
     8f2:	20 f0       	brcs	.+8      	; 0x8fc <ToolsRandom+0x18>
     8f4:	8b 01       	movw	r16, r22
     8f6:	08 1b       	sub	r16, r24
     8f8:	19 0b       	sbc	r17, r25
     8fa:	04 c0       	rjmp	.+8      	; 0x904 <ToolsRandom+0x20>
     8fc:	8c 01       	movw	r16, r24
     8fe:	06 1b       	sub	r16, r22
     900:	17 0b       	sbc	r17, r23
     902:	eb 01       	movw	r28, r22
     904:	01 15       	cp	r16, r1
     906:	11 05       	cpc	r17, r1
     908:	41 f0       	breq	.+16     	; 0x91a <ToolsRandom+0x36>
     90a:	0e 94 3f 19 	call	0x327e	; 0x327e <rand>
     90e:	b8 01       	movw	r22, r16
     910:	0e 94 93 14 	call	0x2926	; 0x2926 <__udivmodhi4>
     914:	8c 0f       	add	r24, r28
     916:	9d 1f       	adc	r25, r29
     918:	01 c0       	rjmp	.+2      	; 0x91c <ToolsRandom+0x38>
     91a:	ce 01       	movw	r24, r28
     91c:	df 91       	pop	r29
     91e:	cf 91       	pop	r28
     920:	1f 91       	pop	r17
     922:	0f 91       	pop	r16
     924:	08 95       	ret

00000926 <ToolsSwap>:
     926:	fc 01       	movw	r30, r24
     928:	20 81       	ld	r18, Z
     92a:	31 81       	ldd	r19, Z+1	; 0x01
     92c:	fb 01       	movw	r30, r22
     92e:	40 81       	ld	r20, Z
     930:	51 81       	ldd	r21, Z+1	; 0x01
     932:	fc 01       	movw	r30, r24
     934:	51 83       	std	Z+1, r21	; 0x01
     936:	40 83       	st	Z, r20
     938:	fb 01       	movw	r30, r22
     93a:	31 83       	std	Z+1, r19	; 0x01
     93c:	20 83       	st	Z, r18
     93e:	08 95       	ret

00000940 <ToolsPow>:
     940:	cf 92       	push	r12
     942:	df 92       	push	r13
     944:	ef 92       	push	r14
     946:	ff 92       	push	r15
     948:	6c 01       	movw	r12, r24
     94a:	fb 01       	movw	r30, r22
     94c:	61 e0       	ldi	r22, 0x01	; 1
     94e:	70 e0       	ldi	r23, 0x00	; 0
     950:	80 e0       	ldi	r24, 0x00	; 0
     952:	90 e0       	ldi	r25, 0x00	; 0
     954:	e1 2c       	mov	r14, r1
     956:	f1 2c       	mov	r15, r1
     958:	31 97       	sbiw	r30, 0x01	; 1
     95a:	38 f0       	brcs	.+14     	; 0x96a <ToolsPow+0x2a>
     95c:	9b 01       	movw	r18, r22
     95e:	ac 01       	movw	r20, r24
     960:	c7 01       	movw	r24, r14
     962:	b6 01       	movw	r22, r12
     964:	0e 94 77 14 	call	0x28ee	; 0x28ee <__mulsi3>
     968:	f7 cf       	rjmp	.-18     	; 0x958 <ToolsPow+0x18>
     96a:	ff 90       	pop	r15
     96c:	ef 90       	pop	r14
     96e:	df 90       	pop	r13
     970:	cf 90       	pop	r12
     972:	08 95       	ret

00000974 <ApplicationMenuShow>:
     974:	af 92       	push	r10
     976:	bf 92       	push	r11
     978:	cf 92       	push	r12
     97a:	ef 92       	push	r14
     97c:	ff 92       	push	r15
     97e:	0f 93       	push	r16
     980:	cf 93       	push	r28
     982:	df 93       	push	r29
     984:	10 92 f4 00 	sts	0x00F4, r1	; 0x8000f4 <__data_end>
     988:	c1 e0       	ldi	r28, 0x01	; 1
     98a:	d1 e0       	ldi	r29, 0x01	; 1
     98c:	88 81       	ld	r24, Y
     98e:	99 81       	ldd	r25, Y+1	; 0x01
     990:	0e 94 5b 0b 	call	0x16b6	; 0x16b6 <ButtonDestroy>
     994:	89 93       	st	Y+, r24
     996:	99 93       	st	Y+, r25
     998:	81 e0       	ldi	r24, 0x01	; 1
     99a:	c5 31       	cpi	r28, 0x15	; 21
     99c:	d8 07       	cpc	r29, r24
     99e:	b1 f7       	brne	.-20     	; 0x98c <ApplicationMenuShow+0x18>
     9a0:	80 e3       	ldi	r24, 0x30	; 48
     9a2:	94 e8       	ldi	r25, 0x84	; 132
     9a4:	0e 94 2a 0c 	call	0x1854	; 0x1854 <GraphicsClearScreen>
     9a8:	88 e2       	ldi	r24, 0x28	; 40
     9aa:	a8 2e       	mov	r10, r24
     9ac:	b1 2c       	mov	r11, r1
     9ae:	90 ef       	ldi	r25, 0xF0	; 240
     9b0:	c9 2e       	mov	r12, r25
     9b2:	e1 2c       	mov	r14, r1
     9b4:	f1 2c       	mov	r15, r1
     9b6:	00 e0       	ldi	r16, 0x00	; 0
     9b8:	2f ec       	ldi	r18, 0xCF	; 207
     9ba:	31 e0       	ldi	r19, 0x01	; 1
     9bc:	4f ef       	ldi	r20, 0xFF	; 255
     9be:	5f ef       	ldi	r21, 0xFF	; 255
     9c0:	61 e0       	ldi	r22, 0x01	; 1
     9c2:	8a e7       	ldi	r24, 0x7A	; 122
     9c4:	90 e0       	ldi	r25, 0x00	; 0
     9c6:	0e 94 1e 0b 	call	0x163c	; 0x163c <ButtonCreate>
     9ca:	90 93 0e 01 	sts	0x010E, r25	; 0x80010e <buttonArray+0xd>
     9ce:	80 93 0d 01 	sts	0x010D, r24	; 0x80010d <buttonArray+0xc>
     9d2:	dc 01       	movw	r26, r24
     9d4:	1d 96       	adiw	r26, 0x0d	; 13
     9d6:	ed 91       	ld	r30, X+
     9d8:	fc 91       	ld	r31, X
     9da:	1e 97       	sbiw	r26, 0x0e	; 14
     9dc:	09 95       	icall
     9de:	28 e1       	ldi	r18, 0x18	; 24
     9e0:	e2 2e       	mov	r14, r18
     9e2:	ff 24       	eor	r15, r15
     9e4:	f3 94       	inc	r15
     9e6:	20 e0       	ldi	r18, 0x00	; 0
     9e8:	38 ef       	ldi	r19, 0xF8	; 248
     9ea:	4f ef       	ldi	r20, 0xFF	; 255
     9ec:	5f ef       	ldi	r21, 0xFF	; 255
     9ee:	61 e0       	ldi	r22, 0x01	; 1
     9f0:	80 e8       	ldi	r24, 0x80	; 128
     9f2:	90 e0       	ldi	r25, 0x00	; 0
     9f4:	0e 94 1e 0b 	call	0x163c	; 0x163c <ButtonCreate>
     9f8:	90 93 10 01 	sts	0x0110, r25	; 0x800110 <buttonArray+0xf>
     9fc:	80 93 0f 01 	sts	0x010F, r24	; 0x80010f <buttonArray+0xe>
     a00:	dc 01       	movw	r26, r24
     a02:	1d 96       	adiw	r26, 0x0d	; 13
     a04:	ed 91       	ld	r30, X+
     a06:	fc 91       	ld	r31, X
     a08:	1e 97       	sbiw	r26, 0x0e	; 14
     a0a:	df 91       	pop	r29
     a0c:	cf 91       	pop	r28
     a0e:	0f 91       	pop	r16
     a10:	ff 90       	pop	r15
     a12:	ef 90       	pop	r14
     a14:	cf 90       	pop	r12
     a16:	bf 90       	pop	r11
     a18:	af 90       	pop	r10
     a1a:	09 94       	ijmp

00000a1c <DesktopShow>:
     a1c:	af 92       	push	r10
     a1e:	bf 92       	push	r11
     a20:	cf 92       	push	r12
     a22:	ef 92       	push	r14
     a24:	ff 92       	push	r15
     a26:	0f 93       	push	r16
     a28:	cf 93       	push	r28
     a2a:	df 93       	push	r29
     a2c:	10 92 f4 00 	sts	0x00F4, r1	; 0x8000f4 <__data_end>
     a30:	c1 e0       	ldi	r28, 0x01	; 1
     a32:	d1 e0       	ldi	r29, 0x01	; 1
     a34:	88 81       	ld	r24, Y
     a36:	99 81       	ldd	r25, Y+1	; 0x01
     a38:	0e 94 5b 0b 	call	0x16b6	; 0x16b6 <ButtonDestroy>
     a3c:	89 93       	st	Y+, r24
     a3e:	99 93       	st	Y+, r25
     a40:	81 e0       	ldi	r24, 0x01	; 1
     a42:	c5 31       	cpi	r28, 0x15	; 21
     a44:	d8 07       	cpc	r29, r24
     a46:	b1 f7       	brne	.-20     	; 0xa34 <DesktopShow+0x18>
     a48:	80 e3       	ldi	r24, 0x30	; 48
     a4a:	94 e8       	ldi	r25, 0x84	; 132
     a4c:	0e 94 2a 0c 	call	0x1854	; 0x1854 <GraphicsClearScreen>
     a50:	88 e2       	ldi	r24, 0x28	; 40
     a52:	a8 2e       	mov	r10, r24
     a54:	b1 2c       	mov	r11, r1
     a56:	90 ef       	ldi	r25, 0xF0	; 240
     a58:	c9 2e       	mov	r12, r25
     a5a:	28 e1       	ldi	r18, 0x18	; 24
     a5c:	e2 2e       	mov	r14, r18
     a5e:	ff 24       	eor	r15, r15
     a60:	f3 94       	inc	r15
     a62:	00 e0       	ldi	r16, 0x00	; 0
     a64:	2f ec       	ldi	r18, 0xCF	; 207
     a66:	31 e0       	ldi	r19, 0x01	; 1
     a68:	4f ef       	ldi	r20, 0xFF	; 255
     a6a:	5f ef       	ldi	r21, 0xFF	; 255
     a6c:	6a e0       	ldi	r22, 0x0A	; 10
     a6e:	85 e8       	ldi	r24, 0x85	; 133
     a70:	90 e0       	ldi	r25, 0x00	; 0
     a72:	0e 94 1e 0b 	call	0x163c	; 0x163c <ButtonCreate>
     a76:	90 93 04 01 	sts	0x0104, r25	; 0x800104 <buttonArray+0x3>
     a7a:	80 93 03 01 	sts	0x0103, r24	; 0x800103 <buttonArray+0x2>
     a7e:	dc 01       	movw	r26, r24
     a80:	1d 96       	adiw	r26, 0x0d	; 13
     a82:	ed 91       	ld	r30, X+
     a84:	fc 91       	ld	r31, X
     a86:	1e 97       	sbiw	r26, 0x0e	; 14
     a88:	df 91       	pop	r29
     a8a:	cf 91       	pop	r28
     a8c:	0f 91       	pop	r16
     a8e:	ff 90       	pop	r15
     a90:	ef 90       	pop	r14
     a92:	cf 90       	pop	r12
     a94:	bf 90       	pop	r11
     a96:	af 90       	pop	r10
     a98:	09 94       	ijmp

00000a9a <DesktopInvokeShowFunction>:
     a9a:	0f 93       	push	r16
     a9c:	1f 93       	push	r17
     a9e:	90 e0       	ldi	r25, 0x00	; 0
     aa0:	87 30       	cpi	r24, 0x07	; 7
     aa2:	91 05       	cpc	r25, r1
     aa4:	40 f5       	brcc	.+80     	; 0xaf6 <DesktopInvokeShowFunction+0x5c>
     aa6:	fc 01       	movw	r30, r24
     aa8:	e6 5d       	subi	r30, 0xD6	; 214
     aaa:	ff 4f       	sbci	r31, 0xFF	; 255
     aac:	0c 94 c9 14 	jmp	0x2992	; 0x2992 <__tablejump2__>
     ab0:	1f 91       	pop	r17
     ab2:	0f 91       	pop	r16
     ab4:	0c 94 0e 05 	jmp	0xa1c	; 0xa1c <DesktopShow>
     ab8:	1f 91       	pop	r17
     aba:	0f 91       	pop	r16
     abc:	0c 94 2d 06 	jmp	0xc5a	; 0xc5a <MainMenuShow>
     ac0:	1f 91       	pop	r17
     ac2:	0f 91       	pop	r16
     ac4:	0c 94 c3 05 	jmp	0xb86	; 0xb86 <GamesMenuShow>
     ac8:	1f 91       	pop	r17
     aca:	0f 91       	pop	r16
     acc:	0c 94 ba 04 	jmp	0x974	; 0x974 <ApplicationMenuShow>
     ad0:	0e 94 f2 06 	call	0xde4	; 0xde4 <SnakePlay>
     ad4:	42 e0       	ldi	r20, 0x02	; 2
     ad6:	65 e0       	ldi	r22, 0x05	; 5
     ad8:	04 c0       	rjmp	.+8      	; 0xae2 <DesktopInvokeShowFunction+0x48>
     ada:	0e 94 8f 0a 	call	0x151e	; 0x151e <PingPongPlay>
     ade:	42 e0       	ldi	r20, 0x02	; 2
     ae0:	64 e0       	ldi	r22, 0x04	; 4
     ae2:	8a e8       	ldi	r24, 0x8A	; 138
     ae4:	90 e0       	ldi	r25, 0x00	; 0
     ae6:	1f 91       	pop	r17
     ae8:	0f 91       	pop	r16
     aea:	0c 94 89 0f 	jmp	0x1f12	; 0x1f12 <QuestionDisplay>
     aee:	1f 91       	pop	r17
     af0:	0f 91       	pop	r16
     af2:	0c 94 fa 13 	jmp	0x27f4	; 0x27f4 <PaintShow>
     af6:	0e e6       	ldi	r16, 0x6E	; 110
     af8:	10 e0       	ldi	r17, 0x00	; 0
     afa:	26 e4       	ldi	r18, 0x46	; 70
     afc:	40 e3       	ldi	r20, 0x30	; 48
     afe:	54 e8       	ldi	r21, 0x84	; 132
     b00:	60 e0       	ldi	r22, 0x00	; 0
     b02:	78 ef       	ldi	r23, 0xF8	; 248
     b04:	83 ea       	ldi	r24, 0xA3	; 163
     b06:	90 e0       	ldi	r25, 0x00	; 0
     b08:	0e 94 f6 0b 	call	0x17ec	; 0x17ec <FontDisplayString>
     b0c:	1f 91       	pop	r17
     b0e:	0f 91       	pop	r16
     b10:	08 95       	ret

00000b12 <DesktopCheckSelect>:
     b12:	ef 92       	push	r14
     b14:	ff 92       	push	r15
     b16:	1f 93       	push	r17
     b18:	cf 93       	push	r28
     b1a:	df 93       	push	r29
     b1c:	f8 94       	cli
     b1e:	0e 94 62 13 	call	0x26c4	; 0x26c4 <TouchReadContinue>
     b22:	91 e0       	ldi	r25, 0x01	; 1
     b24:	e9 2e       	mov	r14, r25
     b26:	91 e0       	ldi	r25, 0x01	; 1
     b28:	f9 2e       	mov	r15, r25
     b2a:	c0 e0       	ldi	r28, 0x00	; 0
     b2c:	d0 e0       	ldi	r29, 0x00	; 0
     b2e:	1c 2f       	mov	r17, r28
     b30:	f7 01       	movw	r30, r14
     b32:	81 91       	ld	r24, Z+
     b34:	91 91       	ld	r25, Z+
     b36:	7f 01       	movw	r14, r30
     b38:	0e 94 60 0b 	call	0x16c0	; 0x16c0 <ButtonCheck>
     b3c:	88 23       	and	r24, r24
     b3e:	c1 f0       	breq	.+48     	; 0xb70 <DesktopCheckSelect+0x5e>
     b40:	17 50       	subi	r17, 0x07	; 7
     b42:	13 30       	cpi	r17, 0x03	; 3
     b44:	40 f4       	brcc	.+16     	; 0xb56 <DesktopCheckSelect+0x44>
     b46:	cc 0f       	add	r28, r28
     b48:	dd 1f       	adc	r29, r29
     b4a:	cf 5f       	subi	r28, 0xFF	; 255
     b4c:	de 4f       	sbci	r29, 0xFE	; 254
     b4e:	e8 81       	ld	r30, Y
     b50:	f9 81       	ldd	r31, Y+1	; 0x01
     b52:	84 85       	ldd	r24, Z+12	; 0x0c
     b54:	01 c0       	rjmp	.+2      	; 0xb58 <DesktopCheckSelect+0x46>
     b56:	8c 2f       	mov	r24, r28
     b58:	0e 94 4d 05 	call	0xa9a	; 0xa9a <DesktopInvokeShowFunction>
     b5c:	8f ef       	ldi	r24, 0xFF	; 255
     b5e:	80 93 f5 00 	sts	0x00F5, r24	; 0x8000f5 <touchPoint>
     b62:	8f ef       	ldi	r24, 0xFF	; 255
     b64:	9f ef       	ldi	r25, 0xFF	; 255
     b66:	90 93 f7 00 	sts	0x00F7, r25	; 0x8000f7 <touchPoint+0x2>
     b6a:	80 93 f6 00 	sts	0x00F6, r24	; 0x8000f6 <touchPoint+0x1>
     b6e:	04 c0       	rjmp	.+8      	; 0xb78 <DesktopCheckSelect+0x66>
     b70:	21 96       	adiw	r28, 0x01	; 1
     b72:	ca 30       	cpi	r28, 0x0A	; 10
     b74:	d1 05       	cpc	r29, r1
     b76:	d9 f6       	brne	.-74     	; 0xb2e <DesktopCheckSelect+0x1c>
     b78:	78 94       	sei
     b7a:	df 91       	pop	r29
     b7c:	cf 91       	pop	r28
     b7e:	1f 91       	pop	r17
     b80:	ff 90       	pop	r15
     b82:	ef 90       	pop	r14
     b84:	08 95       	ret

00000b86 <GamesMenuShow>:
     b86:	af 92       	push	r10
     b88:	bf 92       	push	r11
     b8a:	cf 92       	push	r12
     b8c:	ef 92       	push	r14
     b8e:	ff 92       	push	r15
     b90:	0f 93       	push	r16
     b92:	cf 93       	push	r28
     b94:	df 93       	push	r29
     b96:	10 92 f4 00 	sts	0x00F4, r1	; 0x8000f4 <__data_end>
     b9a:	c1 e0       	ldi	r28, 0x01	; 1
     b9c:	d1 e0       	ldi	r29, 0x01	; 1
     b9e:	88 81       	ld	r24, Y
     ba0:	99 81       	ldd	r25, Y+1	; 0x01
     ba2:	0e 94 5b 0b 	call	0x16b6	; 0x16b6 <ButtonDestroy>
     ba6:	89 93       	st	Y+, r24
     ba8:	99 93       	st	Y+, r25
     baa:	81 e0       	ldi	r24, 0x01	; 1
     bac:	c5 31       	cpi	r28, 0x15	; 21
     bae:	d8 07       	cpc	r29, r24
     bb0:	b1 f7       	brne	.-20     	; 0xb9e <GamesMenuShow+0x18>
     bb2:	80 e3       	ldi	r24, 0x30	; 48
     bb4:	94 e8       	ldi	r25, 0x84	; 132
     bb6:	0e 94 2a 0c 	call	0x1854	; 0x1854 <GraphicsClearScreen>
     bba:	88 e2       	ldi	r24, 0x28	; 40
     bbc:	a8 2e       	mov	r10, r24
     bbe:	b1 2c       	mov	r11, r1
     bc0:	90 ef       	ldi	r25, 0xF0	; 240
     bc2:	c9 2e       	mov	r12, r25
     bc4:	e1 2c       	mov	r14, r1
     bc6:	f1 2c       	mov	r15, r1
     bc8:	00 e0       	ldi	r16, 0x00	; 0
     bca:	2f ec       	ldi	r18, 0xCF	; 207
     bcc:	31 e0       	ldi	r19, 0x01	; 1
     bce:	4f ef       	ldi	r20, 0xFF	; 255
     bd0:	5f ef       	ldi	r21, 0xFF	; 255
     bd2:	61 e0       	ldi	r22, 0x01	; 1
     bd4:	83 eb       	ldi	r24, 0xB3	; 179
     bd6:	90 e0       	ldi	r25, 0x00	; 0
     bd8:	0e 94 1e 0b 	call	0x163c	; 0x163c <ButtonCreate>
     bdc:	90 93 0a 01 	sts	0x010A, r25	; 0x80010a <buttonArray+0x9>
     be0:	80 93 09 01 	sts	0x0109, r24	; 0x800109 <buttonArray+0x8>
     be4:	dc 01       	movw	r26, r24
     be6:	1d 96       	adiw	r26, 0x0d	; 13
     be8:	ed 91       	ld	r30, X+
     bea:	fc 91       	ld	r31, X
     bec:	1e 97       	sbiw	r26, 0x0e	; 14
     bee:	09 95       	icall
     bf0:	28 e2       	ldi	r18, 0x28	; 40
     bf2:	e2 2e       	mov	r14, r18
     bf4:	f1 2c       	mov	r15, r1
     bf6:	2a ec       	ldi	r18, 0xCA	; 202
     bf8:	31 e0       	ldi	r19, 0x01	; 1
     bfa:	4f ef       	ldi	r20, 0xFF	; 255
     bfc:	5f ef       	ldi	r21, 0xFF	; 255
     bfe:	61 e0       	ldi	r22, 0x01	; 1
     c00:	8d eb       	ldi	r24, 0xBD	; 189
     c02:	90 e0       	ldi	r25, 0x00	; 0
     c04:	0e 94 1e 0b 	call	0x163c	; 0x163c <ButtonCreate>
     c08:	90 93 0c 01 	sts	0x010C, r25	; 0x80010c <buttonArray+0xb>
     c0c:	80 93 0b 01 	sts	0x010B, r24	; 0x80010b <buttonArray+0xa>
     c10:	dc 01       	movw	r26, r24
     c12:	1d 96       	adiw	r26, 0x0d	; 13
     c14:	ed 91       	ld	r30, X+
     c16:	fc 91       	ld	r31, X
     c18:	1e 97       	sbiw	r26, 0x0e	; 14
     c1a:	09 95       	icall
     c1c:	38 e1       	ldi	r19, 0x18	; 24
     c1e:	e3 2e       	mov	r14, r19
     c20:	ff 24       	eor	r15, r15
     c22:	f3 94       	inc	r15
     c24:	20 e0       	ldi	r18, 0x00	; 0
     c26:	38 ef       	ldi	r19, 0xF8	; 248
     c28:	4f ef       	ldi	r20, 0xFF	; 255
     c2a:	5f ef       	ldi	r21, 0xFF	; 255
     c2c:	61 e0       	ldi	r22, 0x01	; 1
     c2e:	80 e8       	ldi	r24, 0x80	; 128
     c30:	90 e0       	ldi	r25, 0x00	; 0
     c32:	0e 94 1e 0b 	call	0x163c	; 0x163c <ButtonCreate>
     c36:	90 93 10 01 	sts	0x0110, r25	; 0x800110 <buttonArray+0xf>
     c3a:	80 93 0f 01 	sts	0x010F, r24	; 0x80010f <buttonArray+0xe>
     c3e:	dc 01       	movw	r26, r24
     c40:	1d 96       	adiw	r26, 0x0d	; 13
     c42:	ed 91       	ld	r30, X+
     c44:	fc 91       	ld	r31, X
     c46:	1e 97       	sbiw	r26, 0x0e	; 14
     c48:	df 91       	pop	r29
     c4a:	cf 91       	pop	r28
     c4c:	0f 91       	pop	r16
     c4e:	ff 90       	pop	r15
     c50:	ef 90       	pop	r14
     c52:	cf 90       	pop	r12
     c54:	bf 90       	pop	r11
     c56:	af 90       	pop	r10
     c58:	09 94       	ijmp

00000c5a <MainMenuShow>:
     c5a:	af 92       	push	r10
     c5c:	bf 92       	push	r11
     c5e:	cf 92       	push	r12
     c60:	ef 92       	push	r14
     c62:	ff 92       	push	r15
     c64:	0f 93       	push	r16
     c66:	cf 93       	push	r28
     c68:	df 93       	push	r29
     c6a:	10 92 f4 00 	sts	0x00F4, r1	; 0x8000f4 <__data_end>
     c6e:	c1 e0       	ldi	r28, 0x01	; 1
     c70:	d1 e0       	ldi	r29, 0x01	; 1
     c72:	88 81       	ld	r24, Y
     c74:	99 81       	ldd	r25, Y+1	; 0x01
     c76:	0e 94 5b 0b 	call	0x16b6	; 0x16b6 <ButtonDestroy>
     c7a:	89 93       	st	Y+, r24
     c7c:	99 93       	st	Y+, r25
     c7e:	81 e0       	ldi	r24, 0x01	; 1
     c80:	c5 31       	cpi	r28, 0x15	; 21
     c82:	d8 07       	cpc	r29, r24
     c84:	b1 f7       	brne	.-20     	; 0xc72 <MainMenuShow+0x18>
     c86:	80 e3       	ldi	r24, 0x30	; 48
     c88:	94 e8       	ldi	r25, 0x84	; 132
     c8a:	0e 94 2a 0c 	call	0x1854	; 0x1854 <GraphicsClearScreen>
     c8e:	88 e2       	ldi	r24, 0x28	; 40
     c90:	a8 2e       	mov	r10, r24
     c92:	b1 2c       	mov	r11, r1
     c94:	90 ef       	ldi	r25, 0xF0	; 240
     c96:	c9 2e       	mov	r12, r25
     c98:	e1 2c       	mov	r14, r1
     c9a:	f1 2c       	mov	r15, r1
     c9c:	00 e0       	ldi	r16, 0x00	; 0
     c9e:	2f ec       	ldi	r18, 0xCF	; 207
     ca0:	31 e0       	ldi	r19, 0x01	; 1
     ca2:	4f ef       	ldi	r20, 0xFF	; 255
     ca4:	5f ef       	ldi	r21, 0xFF	; 255
     ca6:	60 e0       	ldi	r22, 0x00	; 0
     ca8:	83 ec       	ldi	r24, 0xC3	; 195
     caa:	90 e0       	ldi	r25, 0x00	; 0
     cac:	0e 94 1e 0b 	call	0x163c	; 0x163c <ButtonCreate>
     cb0:	90 93 06 01 	sts	0x0106, r25	; 0x800106 <buttonArray+0x5>
     cb4:	80 93 05 01 	sts	0x0105, r24	; 0x800105 <buttonArray+0x4>
     cb8:	dc 01       	movw	r26, r24
     cba:	1d 96       	adiw	r26, 0x0d	; 13
     cbc:	ed 91       	ld	r30, X+
     cbe:	fc 91       	ld	r31, X
     cc0:	1e 97       	sbiw	r26, 0x0e	; 14
     cc2:	09 95       	icall
     cc4:	28 e2       	ldi	r18, 0x28	; 40
     cc6:	e2 2e       	mov	r14, r18
     cc8:	f1 2c       	mov	r15, r1
     cca:	2a ec       	ldi	r18, 0xCA	; 202
     ccc:	31 e0       	ldi	r19, 0x01	; 1
     cce:	4f ef       	ldi	r20, 0xFF	; 255
     cd0:	5f ef       	ldi	r21, 0xFF	; 255
     cd2:	60 e0       	ldi	r22, 0x00	; 0
     cd4:	89 ec       	ldi	r24, 0xC9	; 201
     cd6:	90 e0       	ldi	r25, 0x00	; 0
     cd8:	0e 94 1e 0b 	call	0x163c	; 0x163c <ButtonCreate>
     cdc:	90 93 08 01 	sts	0x0108, r25	; 0x800108 <buttonArray+0x7>
     ce0:	80 93 07 01 	sts	0x0107, r24	; 0x800107 <buttonArray+0x6>
     ce4:	dc 01       	movw	r26, r24
     ce6:	1d 96       	adiw	r26, 0x0d	; 13
     ce8:	ed 91       	ld	r30, X+
     cea:	fc 91       	ld	r31, X
     cec:	1e 97       	sbiw	r26, 0x0e	; 14
     cee:	09 95       	icall
     cf0:	38 e1       	ldi	r19, 0x18	; 24
     cf2:	e3 2e       	mov	r14, r19
     cf4:	ff 24       	eor	r15, r15
     cf6:	f3 94       	inc	r15
     cf8:	20 e0       	ldi	r18, 0x00	; 0
     cfa:	38 ef       	ldi	r19, 0xF8	; 248
     cfc:	4f ef       	ldi	r20, 0xFF	; 255
     cfe:	5f ef       	ldi	r21, 0xFF	; 255
     d00:	60 e0       	ldi	r22, 0x00	; 0
     d02:	80 e8       	ldi	r24, 0x80	; 128
     d04:	90 e0       	ldi	r25, 0x00	; 0
     d06:	0e 94 1e 0b 	call	0x163c	; 0x163c <ButtonCreate>
     d0a:	90 93 10 01 	sts	0x0110, r25	; 0x800110 <buttonArray+0xf>
     d0e:	80 93 0f 01 	sts	0x010F, r24	; 0x80010f <buttonArray+0xe>
     d12:	dc 01       	movw	r26, r24
     d14:	1d 96       	adiw	r26, 0x0d	; 13
     d16:	ed 91       	ld	r30, X+
     d18:	fc 91       	ld	r31, X
     d1a:	1e 97       	sbiw	r26, 0x0e	; 14
     d1c:	df 91       	pop	r29
     d1e:	cf 91       	pop	r28
     d20:	0f 91       	pop	r16
     d22:	ff 90       	pop	r15
     d24:	ef 90       	pop	r14
     d26:	cf 90       	pop	r12
     d28:	bf 90       	pop	r11
     d2a:	af 90       	pop	r10
     d2c:	09 94       	ijmp

00000d2e <WelcomeShow>:
     d2e:	0f 93       	push	r16
     d30:	1f 93       	push	r17
     d32:	80 e0       	ldi	r24, 0x00	; 0
     d34:	90 e0       	ldi	r25, 0x00	; 0
     d36:	0e 94 2a 0c 	call	0x1854	; 0x1854 <GraphicsClearScreen>
     d3a:	0c e8       	ldi	r16, 0x8C	; 140
     d3c:	10 e0       	ldi	r17, 0x00	; 0
     d3e:	28 e5       	ldi	r18, 0x58	; 88
     d40:	40 e0       	ldi	r20, 0x00	; 0
     d42:	50 e0       	ldi	r21, 0x00	; 0
     d44:	6f ef       	ldi	r22, 0xFF	; 255
     d46:	7f ef       	ldi	r23, 0xFF	; 255
     d48:	85 ed       	ldi	r24, 0xD5	; 213
     d4a:	90 e0       	ldi	r25, 0x00	; 0
     d4c:	0e 94 f6 0b 	call	0x17ec	; 0x17ec <FontDisplayString>
     d50:	2f ef       	ldi	r18, 0xFF	; 255
     d52:	87 ea       	ldi	r24, 0xA7	; 167
     d54:	91 e6       	ldi	r25, 0x61	; 97
     d56:	21 50       	subi	r18, 0x01	; 1
     d58:	80 40       	sbci	r24, 0x00	; 0
     d5a:	90 40       	sbci	r25, 0x00	; 0
     d5c:	e1 f7       	brne	.-8      	; 0xd56 <WelcomeShow+0x28>
     d5e:	00 c0       	rjmp	.+0      	; 0xd60 <WelcomeShow+0x32>
     d60:	00 00       	nop
     d62:	1f 91       	pop	r17
     d64:	0f 91       	pop	r16
     d66:	08 95       	ret

00000d68 <SnakeInit>:
     d68:	af 92       	push	r10
     d6a:	bf 92       	push	r11
     d6c:	cf 92       	push	r12
     d6e:	df 92       	push	r13
     d70:	ef 92       	push	r14
     d72:	0f 93       	push	r16
     d74:	1f 93       	push	r17
     d76:	cf 93       	push	r28
     d78:	df 93       	push	r29
     d7a:	ec 01       	movw	r28, r24
     d7c:	5b 01       	movw	r10, r22
     d7e:	6a 01       	movw	r12, r20
     d80:	80 e0       	ldi	r24, 0x00	; 0
     d82:	90 e0       	ldi	r25, 0x00	; 0
     d84:	0e 94 5f 04 	call	0x8be	; 0x8be <time>
     d88:	cb 01       	movw	r24, r22
     d8a:	0e 94 44 19 	call	0x3288	; 0x3288 <srand>
     d8e:	82 e0       	ldi	r24, 0x02	; 2
     d90:	90 e1       	ldi	r25, 0x10	; 16
     d92:	0e 94 2a 0c 	call	0x1854	; 0x1854 <GraphicsClearScreen>
     d96:	10 e0       	ldi	r17, 0x00	; 0
     d98:	6b eb       	ldi	r22, 0xBB	; 187
     d9a:	7b eb       	ldi	r23, 0xBB	; 187
     d9c:	84 e4       	ldi	r24, 0x44	; 68
     d9e:	94 e4       	ldi	r25, 0x44	; 68
     da0:	0e 94 72 04 	call	0x8e4	; 0x8e4 <ToolsRandom>
     da4:	22 e0       	ldi	r18, 0x02	; 2
     da6:	e2 2e       	mov	r14, r18
     da8:	01 2f       	mov	r16, r17
     daa:	26 e0       	ldi	r18, 0x06	; 6
     dac:	ac 01       	movw	r20, r24
     dae:	b5 01       	movw	r22, r10
     db0:	ce 01       	movw	r24, r28
     db2:	0e 94 ab 07 	call	0xf56	; 0xf56 <SnakeElementAdd>
     db6:	ec 01       	movw	r28, r24
     db8:	1f 5f       	subi	r17, 0xFF	; 255
     dba:	13 30       	cpi	r17, 0x03	; 3
     dbc:	69 f7       	brne	.-38     	; 0xd98 <SnakeInit+0x30>
     dbe:	f6 01       	movw	r30, r12
     dc0:	14 82       	std	Z+4, r1	; 0x04
     dc2:	15 82       	std	Z+5, r1	; 0x05
     dc4:	a6 01       	movw	r20, r12
     dc6:	f5 01       	movw	r30, r10
     dc8:	60 81       	ld	r22, Z
     dca:	0e 94 6b 07 	call	0xed6	; 0xed6 <SnakeNewFood>
     dce:	ce 01       	movw	r24, r28
     dd0:	df 91       	pop	r29
     dd2:	cf 91       	pop	r28
     dd4:	1f 91       	pop	r17
     dd6:	0f 91       	pop	r16
     dd8:	ef 90       	pop	r14
     dda:	df 90       	pop	r13
     ddc:	cf 90       	pop	r12
     dde:	bf 90       	pop	r11
     de0:	af 90       	pop	r10
     de2:	08 95       	ret

00000de4 <SnakePlay>:
     de4:	0f 93       	push	r16
     de6:	1f 93       	push	r17
     de8:	cf 93       	push	r28
     dea:	df 93       	push	r29
     dec:	cd b7       	in	r28, 0x3d	; 61
     dee:	de b7       	in	r29, 0x3e	; 62
     df0:	27 97       	sbiw	r28, 0x07	; 7
     df2:	0f b6       	in	r0, 0x3f	; 63
     df4:	f8 94       	cli
     df6:	de bf       	out	0x3e, r29	; 62
     df8:	0f be       	out	0x3f, r0	; 63
     dfa:	cd bf       	out	0x3d, r28	; 61
     dfc:	1f 82       	std	Y+7, r1	; 0x07
     dfe:	ae 01       	movw	r20, r28
     e00:	4f 5f       	subi	r20, 0xFF	; 255
     e02:	5f 4f       	sbci	r21, 0xFF	; 255
     e04:	be 01       	movw	r22, r28
     e06:	69 5f       	subi	r22, 0xF9	; 249
     e08:	7f 4f       	sbci	r23, 0xFF	; 255
     e0a:	80 e0       	ldi	r24, 0x00	; 0
     e0c:	90 e0       	ldi	r25, 0x00	; 0
     e0e:	0e 94 b4 06 	call	0xd68	; 0xd68 <SnakeInit>
     e12:	8c 01       	movw	r16, r24
     e14:	be 01       	movw	r22, r28
     e16:	69 5f       	subi	r22, 0xF9	; 249
     e18:	7f 4f       	sbci	r23, 0xFF	; 255
     e1a:	c8 01       	movw	r24, r16
     e1c:	0e 94 b6 08 	call	0x116c	; 0x116c <SnakeCheckChangeDirection>
     e20:	ae 01       	movw	r20, r28
     e22:	4f 5f       	subi	r20, 0xFF	; 255
     e24:	5f 4f       	sbci	r21, 0xFF	; 255
     e26:	be 01       	movw	r22, r28
     e28:	69 5f       	subi	r22, 0xF9	; 249
     e2a:	7f 4f       	sbci	r23, 0xFF	; 255
     e2c:	0e 94 07 09 	call	0x120e	; 0x120e <SnakeCheckFood>
     e30:	ae 01       	movw	r20, r28
     e32:	4f 5f       	subi	r20, 0xFF	; 255
     e34:	5f 4f       	sbci	r21, 0xFF	; 255
     e36:	be 01       	movw	r22, r28
     e38:	69 5f       	subi	r22, 0xF9	; 249
     e3a:	7f 4f       	sbci	r23, 0xFF	; 255
     e3c:	0e 94 98 09 	call	0x1330	; 0x1330 <SnakeMove>
     e40:	be 01       	movw	r22, r28
     e42:	69 5f       	subi	r22, 0xF9	; 249
     e44:	7f 4f       	sbci	r23, 0xFF	; 255
     e46:	0e 94 6a 09 	call	0x12d4	; 0x12d4 <SnakeUpdateDirections>
     e4a:	8c 01       	movw	r16, r24
     e4c:	6f 81       	ldd	r22, Y+7	; 0x07
     e4e:	70 e0       	ldi	r23, 0x00	; 0
     e50:	40 e0       	ldi	r20, 0x00	; 0
     e52:	50 e0       	ldi	r21, 0x00	; 0
     e54:	0e 94 6e 08 	call	0x10dc	; 0x10dc <SnakeCheckCollision>
     e58:	88 23       	and	r24, r24
     e5a:	e1 f2       	breq	.-72     	; 0xe14 <SnakePlay+0x30>
     e5c:	2f ef       	ldi	r18, 0xFF	; 255
     e5e:	83 ec       	ldi	r24, 0xC3	; 195
     e60:	99 e0       	ldi	r25, 0x09	; 9
     e62:	21 50       	subi	r18, 0x01	; 1
     e64:	80 40       	sbci	r24, 0x00	; 0
     e66:	90 40       	sbci	r25, 0x00	; 0
     e68:	e1 f7       	brne	.-8      	; 0xe62 <SnakePlay+0x7e>
     e6a:	00 c0       	rjmp	.+0      	; 0xe6c <SnakePlay+0x88>
     e6c:	00 00       	nop
     e6e:	be 01       	movw	r22, r28
     e70:	69 5f       	subi	r22, 0xF9	; 249
     e72:	7f 4f       	sbci	r23, 0xFF	; 255
     e74:	c8 01       	movw	r24, r16
     e76:	0e 94 43 08 	call	0x1086	; 0x1086 <SnakeDestroy>
     e7a:	27 96       	adiw	r28, 0x07	; 7
     e7c:	0f b6       	in	r0, 0x3f	; 63
     e7e:	f8 94       	cli
     e80:	de bf       	out	0x3e, r29	; 62
     e82:	0f be       	out	0x3f, r0	; 63
     e84:	cd bf       	out	0x3d, r28	; 61
     e86:	df 91       	pop	r29
     e88:	cf 91       	pop	r28
     e8a:	1f 91       	pop	r17
     e8c:	0f 91       	pop	r16
     e8e:	08 95       	ret

00000e90 <SnakeDiplayElement>:
     e90:	0f 93       	push	r16
     e92:	1f 93       	push	r17
     e94:	fc 01       	movw	r30, r24
     e96:	41 81       	ldd	r20, Z+1	; 0x01
     e98:	90 81       	ld	r25, Z
     e9a:	84 e1       	ldi	r24, 0x14	; 20
     e9c:	48 9f       	mul	r20, r24
     e9e:	a0 01       	movw	r20, r0
     ea0:	11 24       	eor	r1, r1
     ea2:	66 23       	and	r22, r22
     ea4:	51 f0       	breq	.+20     	; 0xeba <SnakeDiplayElement+0x2a>
     ea6:	64 e1       	ldi	r22, 0x14	; 20
     ea8:	96 9f       	mul	r25, r22
     eaa:	60 2d       	mov	r22, r0
     eac:	11 24       	eor	r1, r1
     eae:	04 e1       	ldi	r16, 0x14	; 20
     eb0:	10 e0       	ldi	r17, 0x00	; 0
     eb2:	24 e1       	ldi	r18, 0x14	; 20
     eb4:	82 e0       	ldi	r24, 0x02	; 2
     eb6:	90 e1       	ldi	r25, 0x10	; 16
     eb8:	09 c0       	rjmp	.+18     	; 0xecc <SnakeDiplayElement+0x3c>
     eba:	64 e1       	ldi	r22, 0x14	; 20
     ebc:	96 9f       	mul	r25, r22
     ebe:	60 2d       	mov	r22, r0
     ec0:	11 24       	eor	r1, r1
     ec2:	04 e1       	ldi	r16, 0x14	; 20
     ec4:	10 e0       	ldi	r17, 0x00	; 0
     ec6:	24 e1       	ldi	r18, 0x14	; 20
     ec8:	82 81       	ldd	r24, Z+2	; 0x02
     eca:	93 81       	ldd	r25, Z+3	; 0x03
     ecc:	0e 94 77 0c 	call	0x18ee	; 0x18ee <GraphicsClearArea>
     ed0:	1f 91       	pop	r17
     ed2:	0f 91       	pop	r16
     ed4:	08 95       	ret

00000ed6 <SnakeNewFood>:
     ed6:	ef 92       	push	r14
     ed8:	ff 92       	push	r15
     eda:	0f 93       	push	r16
     edc:	1f 93       	push	r17
     ede:	cf 93       	push	r28
     ee0:	df 93       	push	r29
     ee2:	f8 2e       	mov	r15, r24
     ee4:	e9 2e       	mov	r14, r25
     ee6:	06 2f       	mov	r16, r22
     ee8:	ea 01       	movw	r28, r20
     eea:	6b eb       	ldi	r22, 0xBB	; 187
     eec:	7b eb       	ldi	r23, 0xBB	; 187
     eee:	84 e4       	ldi	r24, 0x44	; 68
     ef0:	94 e4       	ldi	r25, 0x44	; 68
     ef2:	0e 94 72 04 	call	0x8e4	; 0x8e4 <ToolsRandom>
     ef6:	9b 83       	std	Y+3, r25	; 0x03
     ef8:	8a 83       	std	Y+2, r24	; 0x02
     efa:	11 e0       	ldi	r17, 0x01	; 1
     efc:	6b e0       	ldi	r22, 0x0B	; 11
     efe:	70 e0       	ldi	r23, 0x00	; 0
     f00:	80 e0       	ldi	r24, 0x00	; 0
     f02:	90 e0       	ldi	r25, 0x00	; 0
     f04:	0e 94 72 04 	call	0x8e4	; 0x8e4 <ToolsRandom>
     f08:	88 83       	st	Y, r24
     f0a:	6f e0       	ldi	r22, 0x0F	; 15
     f0c:	70 e0       	ldi	r23, 0x00	; 0
     f0e:	80 e0       	ldi	r24, 0x00	; 0
     f10:	90 e0       	ldi	r25, 0x00	; 0
     f12:	0e 94 72 04 	call	0x8e4	; 0x8e4 <ToolsRandom>
     f16:	89 83       	std	Y+1, r24	; 0x01
     f18:	ef 2d       	mov	r30, r15
     f1a:	fe 2d       	mov	r31, r14
     f1c:	20 e0       	ldi	r18, 0x00	; 0
     f1e:	20 17       	cp	r18, r16
     f20:	71 f0       	breq	.+28     	; 0xf3e <SnakeNewFood+0x68>
     f22:	a1 91       	ld	r26, Z+
     f24:	b1 91       	ld	r27, Z+
     f26:	3c 91       	ld	r19, X
     f28:	98 81       	ld	r25, Y
     f2a:	39 13       	cpse	r19, r25
     f2c:	06 c0       	rjmp	.+12     	; 0xf3a <SnakeNewFood+0x64>
     f2e:	11 96       	adiw	r26, 0x01	; 1
     f30:	9c 91       	ld	r25, X
     f32:	98 13       	cpse	r25, r24
     f34:	02 c0       	rjmp	.+4      	; 0xf3a <SnakeNewFood+0x64>
     f36:	10 e0       	ldi	r17, 0x00	; 0
     f38:	e1 cf       	rjmp	.-62     	; 0xefc <SnakeNewFood+0x26>
     f3a:	2f 5f       	subi	r18, 0xFF	; 255
     f3c:	f0 cf       	rjmp	.-32     	; 0xf1e <SnakeNewFood+0x48>
     f3e:	11 23       	and	r17, r17
     f40:	e9 f2       	breq	.-70     	; 0xefc <SnakeNewFood+0x26>
     f42:	60 e0       	ldi	r22, 0x00	; 0
     f44:	ce 01       	movw	r24, r28
     f46:	df 91       	pop	r29
     f48:	cf 91       	pop	r28
     f4a:	1f 91       	pop	r17
     f4c:	0f 91       	pop	r16
     f4e:	ff 90       	pop	r15
     f50:	ef 90       	pop	r14
     f52:	0c 94 48 07 	jmp	0xe90	; 0xe90 <SnakeDiplayElement>

00000f56 <SnakeElementAdd>:
     f56:	af 92       	push	r10
     f58:	bf 92       	push	r11
     f5a:	cf 92       	push	r12
     f5c:	df 92       	push	r13
     f5e:	ef 92       	push	r14
     f60:	ff 92       	push	r15
     f62:	0f 93       	push	r16
     f64:	1f 93       	push	r17
     f66:	cf 93       	push	r28
     f68:	df 93       	push	r29
     f6a:	d8 2f       	mov	r29, r24
     f6c:	c9 2f       	mov	r28, r25
     f6e:	6b 01       	movw	r12, r22
     f70:	5a 01       	movw	r10, r20
     f72:	12 2f       	mov	r17, r18
     f74:	fb 01       	movw	r30, r22
     f76:	20 81       	ld	r18, Z
     f78:	82 2f       	mov	r24, r18
     f7a:	64 e6       	ldi	r22, 0x64	; 100
     f7c:	0e 94 87 14 	call	0x290e	; 0x290e <__udivmodqi4>
     f80:	91 11       	cpse	r25, r1
     f82:	0c c0       	rjmp	.+24     	; 0xf9c <SnakeElementAdd+0x46>
     f84:	62 2f       	mov	r22, r18
     f86:	70 e0       	ldi	r23, 0x00	; 0
     f88:	6c 59       	subi	r22, 0x9C	; 156
     f8a:	7f 4f       	sbci	r23, 0xFF	; 255
     f8c:	66 0f       	add	r22, r22
     f8e:	77 1f       	adc	r23, r23
     f90:	8d 2f       	mov	r24, r29
     f92:	9c 2f       	mov	r25, r28
     f94:	0e 94 4f 19 	call	0x329e	; 0x329e <realloc>
     f98:	d8 2f       	mov	r29, r24
     f9a:	c9 2f       	mov	r28, r25
     f9c:	f6 01       	movw	r30, r12
     f9e:	f0 80       	ld	r15, Z
     fa0:	f3 94       	inc	r15
     fa2:	f0 82       	st	Z, r15
     fa4:	86 e0       	ldi	r24, 0x06	; 6
     fa6:	90 e0       	ldi	r25, 0x00	; 0
     fa8:	0e 94 c6 17 	call	0x2f8c	; 0x2f8c <malloc>
     fac:	2d 2f       	mov	r18, r29
     fae:	3c 2f       	mov	r19, r28
     fb0:	2f 0d       	add	r18, r15
     fb2:	31 1d       	adc	r19, r1
     fb4:	2f 0d       	add	r18, r15
     fb6:	31 1d       	adc	r19, r1
     fb8:	f9 01       	movw	r30, r18
     fba:	32 97       	sbiw	r30, 0x02	; 2
     fbc:	91 83       	std	Z+1, r25	; 0x01
     fbe:	80 83       	st	Z, r24
     fc0:	f6 01       	movw	r30, r12
     fc2:	20 81       	ld	r18, Z
     fc4:	8d 2f       	mov	r24, r29
     fc6:	9c 2f       	mov	r25, r28
     fc8:	82 0f       	add	r24, r18
     fca:	91 1d       	adc	r25, r1
     fcc:	82 0f       	add	r24, r18
     fce:	91 1d       	adc	r25, r1
     fd0:	fc 01       	movw	r30, r24
     fd2:	32 97       	sbiw	r30, 0x02	; 2
     fd4:	01 90       	ld	r0, Z+
     fd6:	f0 81       	ld	r31, Z
     fd8:	e0 2d       	mov	r30, r0
     fda:	b3 82       	std	Z+3, r11	; 0x03
     fdc:	a2 82       	std	Z+2, r10	; 0x02
     fde:	f6 01       	movw	r30, r12
     fe0:	20 81       	ld	r18, Z
     fe2:	8d 2f       	mov	r24, r29
     fe4:	9c 2f       	mov	r25, r28
     fe6:	82 0f       	add	r24, r18
     fe8:	91 1d       	adc	r25, r1
     fea:	82 0f       	add	r24, r18
     fec:	91 1d       	adc	r25, r1
     fee:	fc 01       	movw	r30, r24
     ff0:	32 97       	sbiw	r30, 0x02	; 2
     ff2:	01 90       	ld	r0, Z+
     ff4:	f0 81       	ld	r31, Z
     ff6:	e0 2d       	mov	r30, r0
     ff8:	10 83       	st	Z, r17
     ffa:	f6 01       	movw	r30, r12
     ffc:	20 81       	ld	r18, Z
     ffe:	8d 2f       	mov	r24, r29
    1000:	9c 2f       	mov	r25, r28
    1002:	82 0f       	add	r24, r18
    1004:	91 1d       	adc	r25, r1
    1006:	82 0f       	add	r24, r18
    1008:	91 1d       	adc	r25, r1
    100a:	fc 01       	movw	r30, r24
    100c:	32 97       	sbiw	r30, 0x02	; 2
    100e:	01 90       	ld	r0, Z+
    1010:	f0 81       	ld	r31, Z
    1012:	e0 2d       	mov	r30, r0
    1014:	01 83       	std	Z+1, r16	; 0x01
    1016:	f6 01       	movw	r30, r12
    1018:	20 81       	ld	r18, Z
    101a:	8d 2f       	mov	r24, r29
    101c:	9c 2f       	mov	r25, r28
    101e:	82 0f       	add	r24, r18
    1020:	91 1d       	adc	r25, r1
    1022:	82 0f       	add	r24, r18
    1024:	91 1d       	adc	r25, r1
    1026:	fc 01       	movw	r30, r24
    1028:	32 97       	sbiw	r30, 0x02	; 2
    102a:	01 90       	ld	r0, Z+
    102c:	f0 81       	ld	r31, Z
    102e:	e0 2d       	mov	r30, r0
    1030:	e4 82       	std	Z+4, r14	; 0x04
    1032:	f6 01       	movw	r30, r12
    1034:	20 81       	ld	r18, Z
    1036:	8d 2f       	mov	r24, r29
    1038:	9c 2f       	mov	r25, r28
    103a:	82 0f       	add	r24, r18
    103c:	91 1d       	adc	r25, r1
    103e:	82 0f       	add	r24, r18
    1040:	91 1d       	adc	r25, r1
    1042:	fc 01       	movw	r30, r24
    1044:	32 97       	sbiw	r30, 0x02	; 2
    1046:	01 90       	ld	r0, Z+
    1048:	f0 81       	ld	r31, Z
    104a:	e0 2d       	mov	r30, r0
    104c:	e5 82       	std	Z+5, r14	; 0x05
    104e:	f6 01       	movw	r30, r12
    1050:	20 81       	ld	r18, Z
    1052:	8d 2f       	mov	r24, r29
    1054:	9c 2f       	mov	r25, r28
    1056:	82 0f       	add	r24, r18
    1058:	91 1d       	adc	r25, r1
    105a:	82 0f       	add	r24, r18
    105c:	91 1d       	adc	r25, r1
    105e:	fc 01       	movw	r30, r24
    1060:	32 97       	sbiw	r30, 0x02	; 2
    1062:	60 e0       	ldi	r22, 0x00	; 0
    1064:	80 81       	ld	r24, Z
    1066:	91 81       	ldd	r25, Z+1	; 0x01
    1068:	0e 94 48 07 	call	0xe90	; 0xe90 <SnakeDiplayElement>
    106c:	8d 2f       	mov	r24, r29
    106e:	9c 2f       	mov	r25, r28
    1070:	df 91       	pop	r29
    1072:	cf 91       	pop	r28
    1074:	1f 91       	pop	r17
    1076:	0f 91       	pop	r16
    1078:	ff 90       	pop	r15
    107a:	ef 90       	pop	r14
    107c:	df 90       	pop	r13
    107e:	cf 90       	pop	r12
    1080:	bf 90       	pop	r11
    1082:	af 90       	pop	r10
    1084:	08 95       	ret

00001086 <SnakeDestroy>:
    1086:	cf 92       	push	r12
    1088:	df 92       	push	r13
    108a:	ef 92       	push	r14
    108c:	ff 92       	push	r15
    108e:	0f 93       	push	r16
    1090:	1f 93       	push	r17
    1092:	cf 93       	push	r28
    1094:	df 93       	push	r29
    1096:	8c 01       	movw	r16, r24
    1098:	6b 01       	movw	r12, r22
    109a:	c8 2f       	mov	r28, r24
    109c:	d1 2f       	mov	r29, r17
    109e:	e1 2c       	mov	r14, r1
    10a0:	f1 2c       	mov	r15, r1
    10a2:	f6 01       	movw	r30, r12
    10a4:	80 81       	ld	r24, Z
    10a6:	90 e0       	ldi	r25, 0x00	; 0
    10a8:	e8 16       	cp	r14, r24
    10aa:	f9 06       	cpc	r15, r25
    10ac:	44 f4       	brge	.+16     	; 0x10be <SnakeDestroy+0x38>
    10ae:	89 91       	ld	r24, Y+
    10b0:	99 91       	ld	r25, Y+
    10b2:	0e 94 5b 18 	call	0x30b6	; 0x30b6 <free>
    10b6:	ff ef       	ldi	r31, 0xFF	; 255
    10b8:	ef 1a       	sub	r14, r31
    10ba:	ff 0a       	sbc	r15, r31
    10bc:	f2 cf       	rjmp	.-28     	; 0x10a2 <SnakeDestroy+0x1c>
    10be:	c8 01       	movw	r24, r16
    10c0:	0e 94 5b 18 	call	0x30b6	; 0x30b6 <free>
    10c4:	f6 01       	movw	r30, r12
    10c6:	10 82       	st	Z, r1
    10c8:	c8 01       	movw	r24, r16
    10ca:	df 91       	pop	r29
    10cc:	cf 91       	pop	r28
    10ce:	1f 91       	pop	r17
    10d0:	0f 91       	pop	r16
    10d2:	ff 90       	pop	r15
    10d4:	ef 90       	pop	r14
    10d6:	df 90       	pop	r13
    10d8:	cf 90       	pop	r12
    10da:	08 95       	ret

000010dc <SnakeCheckCollision>:
    10dc:	cf 93       	push	r28
    10de:	df 93       	push	r29
    10e0:	64 30       	cpi	r22, 0x04	; 4
    10e2:	f0 f1       	brcs	.+124    	; 0x1160 <SnakeCheckCollision+0x84>
    10e4:	70 e0       	ldi	r23, 0x00	; 0
    10e6:	44 23       	and	r20, r20
    10e8:	81 f0       	breq	.+32     	; 0x110a <SnakeCheckCollision+0x2e>
    10ea:	fb 01       	movw	r30, r22
    10ec:	e1 50       	subi	r30, 0x01	; 1
    10ee:	f0 48       	sbci	r31, 0x80	; 128
    10f0:	ee 0f       	add	r30, r30
    10f2:	ff 1f       	adc	r31, r31
    10f4:	e8 0f       	add	r30, r24
    10f6:	f9 1f       	adc	r31, r25
    10f8:	01 90       	ld	r0, Z+
    10fa:	f0 81       	ld	r31, Z
    10fc:	e0 2d       	mov	r30, r0
    10fe:	20 81       	ld	r18, Z
    1100:	2c 30       	cpi	r18, 0x0C	; 12
    1102:	80 f5       	brcc	.+96     	; 0x1164 <SnakeCheckCollision+0x88>
    1104:	21 81       	ldd	r18, Z+1	; 0x01
    1106:	20 31       	cpi	r18, 0x10	; 16
    1108:	68 f5       	brcc	.+90     	; 0x1164 <SnakeCheckCollision+0x88>
    110a:	9b 01       	movw	r18, r22
    110c:	24 50       	subi	r18, 0x04	; 4
    110e:	31 09       	sbc	r19, r1
    1110:	fb 01       	movw	r30, r22
    1112:	e1 50       	subi	r30, 0x01	; 1
    1114:	f0 48       	sbci	r31, 0x80	; 128
    1116:	ee 0f       	add	r30, r30
    1118:	ff 1f       	adc	r31, r31
    111a:	e8 0f       	add	r30, r24
    111c:	f9 1f       	adc	r31, r25
    111e:	a0 81       	ld	r26, Z
    1120:	b1 81       	ldd	r27, Z+1	; 0x01
    1122:	cc 91       	ld	r28, X
    1124:	66 0f       	add	r22, r22
    1126:	77 1f       	adc	r23, r23
    1128:	40 e0       	ldi	r20, 0x00	; 0
    112a:	50 e0       	ldi	r21, 0x00	; 0
    112c:	fa 01       	movw	r30, r20
    112e:	e6 0f       	add	r30, r22
    1130:	f7 1f       	adc	r31, r23
    1132:	38 97       	sbiw	r30, 0x08	; 8
    1134:	e8 0f       	add	r30, r24
    1136:	f9 1f       	adc	r31, r25
    1138:	01 90       	ld	r0, Z+
    113a:	f0 81       	ld	r31, Z
    113c:	e0 2d       	mov	r30, r0
    113e:	d0 81       	ld	r29, Z
    1140:	dc 13       	cpse	r29, r28
    1142:	06 c0       	rjmp	.+12     	; 0x1150 <SnakeCheckCollision+0x74>
    1144:	f1 81       	ldd	r31, Z+1	; 0x01
    1146:	11 96       	adiw	r26, 0x01	; 1
    1148:	ec 91       	ld	r30, X
    114a:	11 97       	sbiw	r26, 0x01	; 1
    114c:	fe 17       	cp	r31, r30
    114e:	51 f0       	breq	.+20     	; 0x1164 <SnakeCheckCollision+0x88>
    1150:	21 50       	subi	r18, 0x01	; 1
    1152:	31 09       	sbc	r19, r1
    1154:	42 50       	subi	r20, 0x02	; 2
    1156:	51 09       	sbc	r21, r1
    1158:	2f 3f       	cpi	r18, 0xFF	; 255
    115a:	ef ef       	ldi	r30, 0xFF	; 255
    115c:	3e 07       	cpc	r19, r30
    115e:	31 f7       	brne	.-52     	; 0x112c <SnakeCheckCollision+0x50>
    1160:	80 e0       	ldi	r24, 0x00	; 0
    1162:	01 c0       	rjmp	.+2      	; 0x1166 <SnakeCheckCollision+0x8a>
    1164:	8f ef       	ldi	r24, 0xFF	; 255
    1166:	df 91       	pop	r29
    1168:	cf 91       	pop	r28
    116a:	08 95       	ret

0000116c <SnakeCheckChangeDirection>:
    116c:	ff 92       	push	r15
    116e:	0f 93       	push	r16
    1170:	1f 93       	push	r17
    1172:	cf 93       	push	r28
    1174:	df 93       	push	r29
    1176:	1f 92       	push	r1
    1178:	cd b7       	in	r28, 0x3d	; 61
    117a:	de b7       	in	r29, 0x3e	; 62
    117c:	f8 2e       	mov	r15, r24
    117e:	8b 01       	movw	r16, r22
    1180:	99 83       	std	Y+1, r25	; 0x01
    1182:	0e 94 30 10 	call	0x2060	; 0x2060 <AccelerometerGetDirection>
    1186:	28 2f       	mov	r18, r24
    1188:	99 81       	ldd	r25, Y+1	; 0x01
    118a:	82 30       	cpi	r24, 0x02	; 2
    118c:	c1 f0       	breq	.+48     	; 0x11be <SnakeCheckChangeDirection+0x52>
    118e:	18 f4       	brcc	.+6      	; 0x1196 <SnakeCheckChangeDirection+0x2a>
    1190:	81 30       	cpi	r24, 0x01	; 1
    1192:	a9 f0       	breq	.+42     	; 0x11be <SnakeCheckChangeDirection+0x52>
    1194:	34 c0       	rjmp	.+104    	; 0x11fe <SnakeCheckChangeDirection+0x92>
    1196:	83 30       	cpi	r24, 0x03	; 3
    1198:	11 f0       	breq	.+4      	; 0x119e <SnakeCheckChangeDirection+0x32>
    119a:	84 30       	cpi	r24, 0x04	; 4
    119c:	81 f5       	brne	.+96     	; 0x11fe <SnakeCheckChangeDirection+0x92>
    119e:	f8 01       	movw	r30, r16
    11a0:	80 81       	ld	r24, Z
    11a2:	4f 2d       	mov	r20, r15
    11a4:	59 2f       	mov	r21, r25
    11a6:	48 0f       	add	r20, r24
    11a8:	51 1d       	adc	r21, r1
    11aa:	48 0f       	add	r20, r24
    11ac:	51 1d       	adc	r21, r1
    11ae:	fa 01       	movw	r30, r20
    11b0:	32 97       	sbiw	r30, 0x02	; 2
    11b2:	01 90       	ld	r0, Z+
    11b4:	f0 81       	ld	r31, Z
    11b6:	e0 2d       	mov	r30, r0
    11b8:	84 81       	ldd	r24, Z+4	; 0x04
    11ba:	83 50       	subi	r24, 0x03	; 3
    11bc:	0f c0       	rjmp	.+30     	; 0x11dc <SnakeCheckChangeDirection+0x70>
    11be:	f8 01       	movw	r30, r16
    11c0:	80 81       	ld	r24, Z
    11c2:	4f 2d       	mov	r20, r15
    11c4:	59 2f       	mov	r21, r25
    11c6:	48 0f       	add	r20, r24
    11c8:	51 1d       	adc	r21, r1
    11ca:	48 0f       	add	r20, r24
    11cc:	51 1d       	adc	r21, r1
    11ce:	fa 01       	movw	r30, r20
    11d0:	32 97       	sbiw	r30, 0x02	; 2
    11d2:	01 90       	ld	r0, Z+
    11d4:	f0 81       	ld	r31, Z
    11d6:	e0 2d       	mov	r30, r0
    11d8:	84 81       	ldd	r24, Z+4	; 0x04
    11da:	81 50       	subi	r24, 0x01	; 1
    11dc:	82 30       	cpi	r24, 0x02	; 2
    11de:	78 f0       	brcs	.+30     	; 0x11fe <SnakeCheckChangeDirection+0x92>
    11e0:	25 83       	std	Z+5, r18	; 0x05
    11e2:	f8 01       	movw	r30, r16
    11e4:	80 81       	ld	r24, Z
    11e6:	4f 2d       	mov	r20, r15
    11e8:	59 2f       	mov	r21, r25
    11ea:	48 0f       	add	r20, r24
    11ec:	51 1d       	adc	r21, r1
    11ee:	48 0f       	add	r20, r24
    11f0:	51 1d       	adc	r21, r1
    11f2:	fa 01       	movw	r30, r20
    11f4:	32 97       	sbiw	r30, 0x02	; 2
    11f6:	01 90       	ld	r0, Z+
    11f8:	f0 81       	ld	r31, Z
    11fa:	e0 2d       	mov	r30, r0
    11fc:	24 83       	std	Z+4, r18	; 0x04
    11fe:	8f 2d       	mov	r24, r15
    1200:	0f 90       	pop	r0
    1202:	df 91       	pop	r29
    1204:	cf 91       	pop	r28
    1206:	1f 91       	pop	r17
    1208:	0f 91       	pop	r16
    120a:	ff 90       	pop	r15
    120c:	08 95       	ret

0000120e <SnakeCheckFood>:
    120e:	af 92       	push	r10
    1210:	bf 92       	push	r11
    1212:	cf 92       	push	r12
    1214:	df 92       	push	r13
    1216:	ef 92       	push	r14
    1218:	0f 93       	push	r16
    121a:	cf 93       	push	r28
    121c:	df 93       	push	r29
    121e:	d8 2f       	mov	r29, r24
    1220:	c9 2f       	mov	r28, r25
    1222:	5b 01       	movw	r10, r22
    1224:	6a 01       	movw	r12, r20
    1226:	db 01       	movw	r26, r22
    1228:	2c 91       	ld	r18, X
    122a:	82 0f       	add	r24, r18
    122c:	91 1d       	adc	r25, r1
    122e:	82 0f       	add	r24, r18
    1230:	91 1d       	adc	r25, r1
    1232:	fc 01       	movw	r30, r24
    1234:	32 97       	sbiw	r30, 0x02	; 2
    1236:	01 90       	ld	r0, Z+
    1238:	f0 81       	ld	r31, Z
    123a:	e0 2d       	mov	r30, r0
    123c:	20 81       	ld	r18, Z
    123e:	da 01       	movw	r26, r20
    1240:	8c 91       	ld	r24, X
    1242:	28 13       	cpse	r18, r24
    1244:	3c c0       	rjmp	.+120    	; 0x12be <SnakeCheckFood+0xb0>
    1246:	01 81       	ldd	r16, Z+1	; 0x01
    1248:	11 96       	adiw	r26, 0x01	; 1
    124a:	8c 91       	ld	r24, X
    124c:	08 13       	cpse	r16, r24
    124e:	37 c0       	rjmp	.+110    	; 0x12be <SnakeCheckFood+0xb0>
    1250:	84 81       	ldd	r24, Z+4	; 0x04
    1252:	82 30       	cpi	r24, 0x02	; 2
    1254:	f1 f0       	breq	.+60     	; 0x1292 <SnakeCheckFood+0x84>
    1256:	48 f4       	brcc	.+18     	; 0x126a <SnakeCheckFood+0x5c>
    1258:	81 30       	cpi	r24, 0x01	; 1
    125a:	51 f5       	brne	.+84     	; 0x12b0 <SnakeCheckFood+0xa2>
    125c:	01 50       	subi	r16, 0x01	; 1
    125e:	fa 01       	movw	r30, r20
    1260:	42 81       	ldd	r20, Z+2	; 0x02
    1262:	53 81       	ldd	r21, Z+3	; 0x03
    1264:	ee 24       	eor	r14, r14
    1266:	e3 94       	inc	r14
    1268:	1c c0       	rjmp	.+56     	; 0x12a2 <SnakeCheckFood+0x94>
    126a:	83 30       	cpi	r24, 0x03	; 3
    126c:	59 f0       	breq	.+22     	; 0x1284 <SnakeCheckFood+0x76>
    126e:	84 30       	cpi	r24, 0x04	; 4
    1270:	f9 f4       	brne	.+62     	; 0x12b0 <SnakeCheckFood+0xa2>
    1272:	2f 5f       	subi	r18, 0xFF	; 255
    1274:	da 01       	movw	r26, r20
    1276:	12 96       	adiw	r26, 0x02	; 2
    1278:	4d 91       	ld	r20, X+
    127a:	5c 91       	ld	r21, X
    127c:	13 97       	sbiw	r26, 0x03	; 3
    127e:	94 e0       	ldi	r25, 0x04	; 4
    1280:	e9 2e       	mov	r14, r25
    1282:	0f c0       	rjmp	.+30     	; 0x12a2 <SnakeCheckFood+0x94>
    1284:	21 50       	subi	r18, 0x01	; 1
    1286:	fa 01       	movw	r30, r20
    1288:	42 81       	ldd	r20, Z+2	; 0x02
    128a:	53 81       	ldd	r21, Z+3	; 0x03
    128c:	33 e0       	ldi	r19, 0x03	; 3
    128e:	e3 2e       	mov	r14, r19
    1290:	08 c0       	rjmp	.+16     	; 0x12a2 <SnakeCheckFood+0x94>
    1292:	0f 5f       	subi	r16, 0xFF	; 255
    1294:	da 01       	movw	r26, r20
    1296:	12 96       	adiw	r26, 0x02	; 2
    1298:	4d 91       	ld	r20, X+
    129a:	5c 91       	ld	r21, X
    129c:	13 97       	sbiw	r26, 0x03	; 3
    129e:	82 e0       	ldi	r24, 0x02	; 2
    12a0:	e8 2e       	mov	r14, r24
    12a2:	b5 01       	movw	r22, r10
    12a4:	8d 2f       	mov	r24, r29
    12a6:	9c 2f       	mov	r25, r28
    12a8:	0e 94 ab 07 	call	0xf56	; 0xf56 <SnakeElementAdd>
    12ac:	d8 2f       	mov	r29, r24
    12ae:	c9 2f       	mov	r28, r25
    12b0:	a6 01       	movw	r20, r12
    12b2:	f5 01       	movw	r30, r10
    12b4:	60 81       	ld	r22, Z
    12b6:	8d 2f       	mov	r24, r29
    12b8:	9c 2f       	mov	r25, r28
    12ba:	0e 94 6b 07 	call	0xed6	; 0xed6 <SnakeNewFood>
    12be:	8d 2f       	mov	r24, r29
    12c0:	9c 2f       	mov	r25, r28
    12c2:	df 91       	pop	r29
    12c4:	cf 91       	pop	r28
    12c6:	0f 91       	pop	r16
    12c8:	ef 90       	pop	r14
    12ca:	df 90       	pop	r13
    12cc:	cf 90       	pop	r12
    12ce:	bf 90       	pop	r11
    12d0:	af 90       	pop	r10
    12d2:	08 95       	ret

000012d4 <SnakeUpdateDirections>:
    12d4:	cf 93       	push	r28
    12d6:	df 93       	push	r29
    12d8:	fb 01       	movw	r30, r22
    12da:	20 81       	ld	r18, Z
    12dc:	30 e0       	ldi	r19, 0x00	; 0
    12de:	a9 01       	movw	r20, r18
    12e0:	42 50       	subi	r20, 0x02	; 2
    12e2:	51 09       	sbc	r21, r1
    12e4:	22 0f       	add	r18, r18
    12e6:	33 1f       	adc	r19, r19
    12e8:	fc 01       	movw	r30, r24
    12ea:	e2 0f       	add	r30, r18
    12ec:	f3 1f       	adc	r31, r19
    12ee:	66 27       	eor	r22, r22
    12f0:	77 27       	eor	r23, r23
    12f2:	62 1b       	sub	r22, r18
    12f4:	73 0b       	sbc	r23, r19
    12f6:	24 50       	subi	r18, 0x04	; 4
    12f8:	31 09       	sbc	r19, r1
    12fa:	57 fd       	sbrc	r21, 7
    12fc:	16 c0       	rjmp	.+44     	; 0x132a <SnakeUpdateDirections+0x56>
    12fe:	df 01       	movw	r26, r30
    1300:	a6 0f       	add	r26, r22
    1302:	b7 1f       	adc	r27, r23
    1304:	a2 0f       	add	r26, r18
    1306:	b3 1f       	adc	r27, r19
    1308:	0d 90       	ld	r0, X+
    130a:	bc 91       	ld	r27, X
    130c:	a0 2d       	mov	r26, r0
    130e:	14 96       	adiw	r26, 0x04	; 4
    1310:	cc 91       	ld	r28, X
    1312:	14 97       	sbiw	r26, 0x04	; 4
    1314:	15 96       	adiw	r26, 0x05	; 5
    1316:	cc 93       	st	X, r28
    1318:	15 97       	sbiw	r26, 0x05	; 5
    131a:	d2 91       	ld	r29, -Z
    131c:	c2 91       	ld	r28, -Z
    131e:	cd 81       	ldd	r28, Y+5	; 0x05
    1320:	14 96       	adiw	r26, 0x04	; 4
    1322:	cc 93       	st	X, r28
    1324:	41 50       	subi	r20, 0x01	; 1
    1326:	51 09       	sbc	r21, r1
    1328:	e8 cf       	rjmp	.-48     	; 0x12fa <SnakeUpdateDirections+0x26>
    132a:	df 91       	pop	r29
    132c:	cf 91       	pop	r28
    132e:	08 95       	ret

00001330 <SnakeMove>:
    1330:	6f 92       	push	r6
    1332:	7f 92       	push	r7
    1334:	8f 92       	push	r8
    1336:	9f 92       	push	r9
    1338:	af 92       	push	r10
    133a:	bf 92       	push	r11
    133c:	cf 92       	push	r12
    133e:	df 92       	push	r13
    1340:	ef 92       	push	r14
    1342:	ff 92       	push	r15
    1344:	0f 93       	push	r16
    1346:	1f 93       	push	r17
    1348:	cf 93       	push	r28
    134a:	df 93       	push	r29
    134c:	6c 01       	movw	r12, r24
    134e:	2f ef       	ldi	r18, 0xFF	; 255
    1350:	83 ec       	ldi	r24, 0xC3	; 195
    1352:	99 e0       	ldi	r25, 0x09	; 9
    1354:	21 50       	subi	r18, 0x01	; 1
    1356:	80 40       	sbci	r24, 0x00	; 0
    1358:	90 40       	sbci	r25, 0x00	; 0
    135a:	e1 f7       	brne	.-8      	; 0x1354 <SnakeMove+0x24>
    135c:	00 c0       	rjmp	.+0      	; 0x135e <SnakeMove+0x2e>
    135e:	00 00       	nop
    1360:	db 01       	movw	r26, r22
    1362:	cc 91       	ld	r28, X
    1364:	d0 e0       	ldi	r29, 0x00	; 0
    1366:	4e 01       	movw	r8, r28
    1368:	88 0c       	add	r8, r8
    136a:	99 1c       	adc	r9, r9
    136c:	76 01       	movw	r14, r12
    136e:	e8 0c       	add	r14, r8
    1370:	f9 1c       	adc	r15, r9
    1372:	aa 24       	eor	r10, r10
    1374:	bb 24       	eor	r11, r11
    1376:	a8 18       	sub	r10, r8
    1378:	b9 08       	sbc	r11, r9
    137a:	9b e0       	ldi	r25, 0x0B	; 11
    137c:	79 2e       	mov	r7, r25
    137e:	2f e0       	ldi	r18, 0x0F	; 15
    1380:	62 2e       	mov	r6, r18
    1382:	20 97       	sbiw	r28, 0x00	; 0
    1384:	09 f4       	brne	.+2      	; 0x1388 <SnakeMove+0x58>
    1386:	42 c0       	rjmp	.+132    	; 0x140c <SnakeMove+0xdc>
    1388:	b2 e0       	ldi	r27, 0x02	; 2
    138a:	eb 1a       	sub	r14, r27
    138c:	f1 08       	sbc	r15, r1
    138e:	85 01       	movw	r16, r10
    1390:	0e 0d       	add	r16, r14
    1392:	1f 1d       	adc	r17, r15
    1394:	08 0d       	add	r16, r8
    1396:	19 1d       	adc	r17, r9
    1398:	61 e0       	ldi	r22, 0x01	; 1
    139a:	f8 01       	movw	r30, r16
    139c:	80 81       	ld	r24, Z
    139e:	91 81       	ldd	r25, Z+1	; 0x01
    13a0:	0e 94 48 07 	call	0xe90	; 0xe90 <SnakeDiplayElement>
    13a4:	d8 01       	movw	r26, r16
    13a6:	ed 91       	ld	r30, X+
    13a8:	fc 91       	ld	r31, X
    13aa:	84 81       	ldd	r24, Z+4	; 0x04
    13ac:	82 30       	cpi	r24, 0x02	; 2
    13ae:	f9 f0       	breq	.+62     	; 0x13ee <SnakeMove+0xbe>
    13b0:	18 f4       	brcc	.+6      	; 0x13b8 <SnakeMove+0x88>
    13b2:	81 30       	cpi	r24, 0x01	; 1
    13b4:	a9 f0       	breq	.+42     	; 0x13e0 <SnakeMove+0xb0>
    13b6:	22 c0       	rjmp	.+68     	; 0x13fc <SnakeMove+0xcc>
    13b8:	83 30       	cpi	r24, 0x03	; 3
    13ba:	19 f0       	breq	.+6      	; 0x13c2 <SnakeMove+0x92>
    13bc:	84 30       	cpi	r24, 0x04	; 4
    13be:	41 f0       	breq	.+16     	; 0x13d0 <SnakeMove+0xa0>
    13c0:	1d c0       	rjmp	.+58     	; 0x13fc <SnakeMove+0xcc>
    13c2:	80 81       	ld	r24, Z
    13c4:	81 11       	cpse	r24, r1
    13c6:	02 c0       	rjmp	.+4      	; 0x13cc <SnakeMove+0x9c>
    13c8:	70 82       	st	Z, r7
    13ca:	18 c0       	rjmp	.+48     	; 0x13fc <SnakeMove+0xcc>
    13cc:	81 50       	subi	r24, 0x01	; 1
    13ce:	06 c0       	rjmp	.+12     	; 0x13dc <SnakeMove+0xac>
    13d0:	80 81       	ld	r24, Z
    13d2:	8b 30       	cpi	r24, 0x0B	; 11
    13d4:	10 f0       	brcs	.+4      	; 0x13da <SnakeMove+0xaa>
    13d6:	10 82       	st	Z, r1
    13d8:	11 c0       	rjmp	.+34     	; 0x13fc <SnakeMove+0xcc>
    13da:	8f 5f       	subi	r24, 0xFF	; 255
    13dc:	80 83       	st	Z, r24
    13de:	0e c0       	rjmp	.+28     	; 0x13fc <SnakeMove+0xcc>
    13e0:	81 81       	ldd	r24, Z+1	; 0x01
    13e2:	81 11       	cpse	r24, r1
    13e4:	02 c0       	rjmp	.+4      	; 0x13ea <SnakeMove+0xba>
    13e6:	61 82       	std	Z+1, r6	; 0x01
    13e8:	09 c0       	rjmp	.+18     	; 0x13fc <SnakeMove+0xcc>
    13ea:	81 50       	subi	r24, 0x01	; 1
    13ec:	06 c0       	rjmp	.+12     	; 0x13fa <SnakeMove+0xca>
    13ee:	81 81       	ldd	r24, Z+1	; 0x01
    13f0:	8f 30       	cpi	r24, 0x0F	; 15
    13f2:	10 f0       	brcs	.+4      	; 0x13f8 <SnakeMove+0xc8>
    13f4:	11 82       	std	Z+1, r1	; 0x01
    13f6:	02 c0       	rjmp	.+4      	; 0x13fc <SnakeMove+0xcc>
    13f8:	8f 5f       	subi	r24, 0xFF	; 255
    13fa:	81 83       	std	Z+1, r24	; 0x01
    13fc:	60 e0       	ldi	r22, 0x00	; 0
    13fe:	f8 01       	movw	r30, r16
    1400:	80 81       	ld	r24, Z
    1402:	91 81       	ldd	r25, Z+1	; 0x01
    1404:	0e 94 48 07 	call	0xe90	; 0xe90 <SnakeDiplayElement>
    1408:	21 97       	sbiw	r28, 0x01	; 1
    140a:	bb cf       	rjmp	.-138    	; 0x1382 <SnakeMove+0x52>
    140c:	c6 01       	movw	r24, r12
    140e:	df 91       	pop	r29
    1410:	cf 91       	pop	r28
    1412:	1f 91       	pop	r17
    1414:	0f 91       	pop	r16
    1416:	ff 90       	pop	r15
    1418:	ef 90       	pop	r14
    141a:	df 90       	pop	r13
    141c:	cf 90       	pop	r12
    141e:	bf 90       	pop	r11
    1420:	af 90       	pop	r10
    1422:	9f 90       	pop	r9
    1424:	8f 90       	pop	r8
    1426:	7f 90       	pop	r7
    1428:	6f 90       	pop	r6
    142a:	08 95       	ret

0000142c <CalculateBallPosition>:
    142c:	0f 93       	push	r16
    142e:	1f 93       	push	r17
    1430:	cf 93       	push	r28
    1432:	df 93       	push	r29
    1434:	ec 01       	movw	r28, r24
    1436:	db 01       	movw	r26, r22
    1438:	f9 01       	movw	r30, r18
    143a:	88 81       	ld	r24, Y
    143c:	81 50       	subi	r24, 0x01	; 1
    143e:	8c 3d       	cpi	r24, 0xDC	; 220
    1440:	18 f0       	brcs	.+6      	; 0x1448 <CalculateBallPosition+0x1c>
    1442:	80 81       	ld	r24, Z
    1444:	81 95       	neg	r24
    1446:	80 83       	st	Z, r24
    1448:	8d 91       	ld	r24, X+
    144a:	9c 91       	ld	r25, X
    144c:	11 97       	sbiw	r26, 0x01	; 1
    144e:	00 97       	sbiw	r24, 0x00	; 0
    1450:	99 f0       	breq	.+38     	; 0x1478 <CalculateBallPosition+0x4c>
    1452:	44 96       	adiw	r24, 0x14	; 20
    1454:	8d 32       	cpi	r24, 0x2D	; 45
    1456:	91 40       	sbci	r25, 0x01	; 1
    1458:	90 f0       	brcs	.+36     	; 0x147e <CalculateBallPosition+0x52>
    145a:	88 81       	ld	r24, Y
    145c:	90 e0       	ldi	r25, 0x00	; 0
    145e:	24 2f       	mov	r18, r20
    1460:	30 e0       	ldi	r19, 0x00	; 0
    1462:	bc 01       	movw	r22, r24
    1464:	67 5f       	subi	r22, 0xF7	; 247
    1466:	7f 4f       	sbci	r23, 0xFF	; 255
    1468:	62 17       	cp	r22, r18
    146a:	73 07       	cpc	r23, r19
    146c:	44 f0       	brlt	.+16     	; 0x147e <CalculateBallPosition+0x52>
    146e:	2f 5c       	subi	r18, 0xCF	; 207
    1470:	3f 4f       	sbci	r19, 0xFF	; 255
    1472:	28 17       	cp	r18, r24
    1474:	39 07       	cpc	r19, r25
    1476:	1c f0       	brlt	.+6      	; 0x147e <CalculateBallPosition+0x52>
    1478:	81 81       	ldd	r24, Z+1	; 0x01
    147a:	81 95       	neg	r24
    147c:	81 83       	std	Z+1, r24	; 0x01
    147e:	2d 91       	ld	r18, X+
    1480:	3c 91       	ld	r19, X
    1482:	11 97       	sbiw	r26, 0x01	; 1
    1484:	98 81       	ld	r25, Y
    1486:	2d 32       	cpi	r18, 0x2D	; 45
    1488:	31 40       	sbci	r19, 0x01	; 1
    148a:	e0 f0       	brcs	.+56     	; 0x14c4 <CalculateBallPosition+0x98>
    148c:	29 2f       	mov	r18, r25
    148e:	30 e0       	ldi	r19, 0x00	; 0
    1490:	50 e0       	ldi	r21, 0x00	; 0
    1492:	b9 01       	movw	r22, r18
    1494:	67 5f       	subi	r22, 0xF7	; 247
    1496:	7f 4f       	sbci	r23, 0xFF	; 255
    1498:	64 17       	cp	r22, r20
    149a:	75 07       	cpc	r23, r21
    149c:	2c f0       	brlt	.+10     	; 0x14a8 <CalculateBallPosition+0x7c>
    149e:	4f 5c       	subi	r20, 0xCF	; 207
    14a0:	5f 4f       	sbci	r21, 0xFF	; 255
    14a2:	42 17       	cp	r20, r18
    14a4:	53 07       	cpc	r21, r19
    14a6:	74 f4       	brge	.+28     	; 0x14c4 <CalculateBallPosition+0x98>
    14a8:	04 e6       	ldi	r16, 0x64	; 100
    14aa:	10 e0       	ldi	r17, 0x00	; 0
    14ac:	2a e0       	ldi	r18, 0x0A	; 10
    14ae:	30 e0       	ldi	r19, 0x00	; 0
    14b0:	40 e0       	ldi	r20, 0x00	; 0
    14b2:	50 e0       	ldi	r21, 0x00	; 0
    14b4:	6f e1       	ldi	r22, 0x1F	; 31
    14b6:	70 e0       	ldi	r23, 0x00	; 0
    14b8:	8e ed       	ldi	r24, 0xDE	; 222
    14ba:	90 e0       	ldi	r25, 0x00	; 0
    14bc:	0e 94 f6 0b 	call	0x17ec	; 0x17ec <FontDisplayString>
    14c0:	81 e0       	ldi	r24, 0x01	; 1
    14c2:	0e c0       	rjmp	.+28     	; 0x14e0 <CalculateBallPosition+0xb4>
    14c4:	80 81       	ld	r24, Z
    14c6:	89 0f       	add	r24, r25
    14c8:	88 83       	st	Y, r24
    14ca:	21 81       	ldd	r18, Z+1	; 0x01
    14cc:	8d 91       	ld	r24, X+
    14ce:	9c 91       	ld	r25, X
    14d0:	11 97       	sbiw	r26, 0x01	; 1
    14d2:	82 0f       	add	r24, r18
    14d4:	91 1d       	adc	r25, r1
    14d6:	27 fd       	sbrc	r18, 7
    14d8:	9a 95       	dec	r25
    14da:	8d 93       	st	X+, r24
    14dc:	9c 93       	st	X, r25
    14de:	80 e0       	ldi	r24, 0x00	; 0
    14e0:	df 91       	pop	r29
    14e2:	cf 91       	pop	r28
    14e4:	1f 91       	pop	r17
    14e6:	0f 91       	pop	r16
    14e8:	08 95       	ret

000014ea <CalculateLinePosition>:
    14ea:	cf 93       	push	r28
    14ec:	df 93       	push	r29
    14ee:	ec 01       	movw	r28, r24
    14f0:	89 e2       	ldi	r24, 0x29	; 41
    14f2:	0e 94 11 10 	call	0x2022	; 0x2022 <AccelerometerGetAngle>
    14f6:	86 3f       	cpi	r24, 0xF6	; 246
    14f8:	2c f4       	brge	.+10     	; 0x1504 <CalculateLinePosition+0x1a>
    14fa:	88 81       	ld	r24, Y
    14fc:	88 23       	and	r24, r24
    14fe:	61 f0       	breq	.+24     	; 0x1518 <CalculateLinePosition+0x2e>
    1500:	82 50       	subi	r24, 0x02	; 2
    1502:	09 c0       	rjmp	.+18     	; 0x1516 <CalculateLinePosition+0x2c>
    1504:	8b 30       	cpi	r24, 0x0B	; 11
    1506:	44 f0       	brlt	.+16     	; 0x1518 <CalculateLinePosition+0x2e>
    1508:	88 81       	ld	r24, Y
    150a:	28 2f       	mov	r18, r24
    150c:	30 e0       	ldi	r19, 0x00	; 0
    150e:	24 3b       	cpi	r18, 0xB4	; 180
    1510:	31 05       	cpc	r19, r1
    1512:	14 f4       	brge	.+4      	; 0x1518 <CalculateLinePosition+0x2e>
    1514:	8e 5f       	subi	r24, 0xFE	; 254
    1516:	88 83       	st	Y, r24
    1518:	df 91       	pop	r29
    151a:	cf 91       	pop	r28
    151c:	08 95       	ret

0000151e <PingPongPlay>:
    151e:	0f 93       	push	r16
    1520:	1f 93       	push	r17
    1522:	cf 93       	push	r28
    1524:	df 93       	push	r29
    1526:	00 d0       	rcall	.+0      	; 0x1528 <PingPongPlay+0xa>
    1528:	00 d0       	rcall	.+0      	; 0x152a <PingPongPlay+0xc>
    152a:	00 d0       	rcall	.+0      	; 0x152c <PingPongPlay+0xe>
    152c:	cd b7       	in	r28, 0x3d	; 61
    152e:	de b7       	in	r29, 0x3e	; 62
    1530:	8e e6       	ldi	r24, 0x6E	; 110
    1532:	8e 83       	std	Y+6, r24	; 0x06
    1534:	8a e5       	ldi	r24, 0x5A	; 90
    1536:	8d 83       	std	Y+5, r24	; 0x05
    1538:	86 e9       	ldi	r24, 0x96	; 150
    153a:	90 e0       	ldi	r25, 0x00	; 0
    153c:	9a 83       	std	Y+2, r25	; 0x02
    153e:	89 83       	std	Y+1, r24	; 0x01
    1540:	81 e0       	ldi	r24, 0x01	; 1
    1542:	8b 83       	std	Y+3, r24	; 0x03
    1544:	8c 83       	std	Y+4, r24	; 0x04
    1546:	80 e0       	ldi	r24, 0x00	; 0
    1548:	90 e0       	ldi	r25, 0x00	; 0
    154a:	0e 94 2a 0c 	call	0x1854	; 0x1854 <GraphicsClearScreen>
    154e:	05 e0       	ldi	r16, 0x05	; 5
    1550:	10 e0       	ldi	r17, 0x00	; 0
    1552:	2c e3       	ldi	r18, 0x3C	; 60
    1554:	4c e2       	ldi	r20, 0x2C	; 44
    1556:	51 e0       	ldi	r21, 0x01	; 1
    1558:	6d 81       	ldd	r22, Y+5	; 0x05
    155a:	80 e0       	ldi	r24, 0x00	; 0
    155c:	90 e0       	ldi	r25, 0x00	; 0
    155e:	0e 94 77 0c 	call	0x18ee	; 0x18ee <GraphicsClearArea>
    1562:	ce 01       	movw	r24, r28
    1564:	05 96       	adiw	r24, 0x05	; 5
    1566:	0e 94 75 0a 	call	0x14ea	; 0x14ea <CalculateLinePosition>
    156a:	2c e3       	ldi	r18, 0x3C	; 60
    156c:	4c e2       	ldi	r20, 0x2C	; 44
    156e:	51 e0       	ldi	r21, 0x01	; 1
    1570:	6d 81       	ldd	r22, Y+5	; 0x05
    1572:	80 e0       	ldi	r24, 0x00	; 0
    1574:	98 ef       	ldi	r25, 0xF8	; 248
    1576:	0e 94 77 0c 	call	0x18ee	; 0x18ee <GraphicsClearArea>
    157a:	49 81       	ldd	r20, Y+1	; 0x01
    157c:	5a 81       	ldd	r21, Y+2	; 0x02
    157e:	04 e1       	ldi	r16, 0x14	; 20
    1580:	10 e0       	ldi	r17, 0x00	; 0
    1582:	24 e1       	ldi	r18, 0x14	; 20
    1584:	6e 81       	ldd	r22, Y+6	; 0x06
    1586:	80 e0       	ldi	r24, 0x00	; 0
    1588:	90 e0       	ldi	r25, 0x00	; 0
    158a:	0e 94 77 0c 	call	0x18ee	; 0x18ee <GraphicsClearArea>
    158e:	9e 01       	movw	r18, r28
    1590:	2d 5f       	subi	r18, 0xFD	; 253
    1592:	3f 4f       	sbci	r19, 0xFF	; 255
    1594:	4d 81       	ldd	r20, Y+5	; 0x05
    1596:	be 01       	movw	r22, r28
    1598:	6f 5f       	subi	r22, 0xFF	; 255
    159a:	7f 4f       	sbci	r23, 0xFF	; 255
    159c:	ce 01       	movw	r24, r28
    159e:	06 96       	adiw	r24, 0x06	; 6
    15a0:	0e 94 16 0a 	call	0x142c	; 0x142c <CalculateBallPosition>
    15a4:	81 11       	cpse	r24, r1
    15a6:	09 c0       	rjmp	.+18     	; 0x15ba <PingPongPlay+0x9c>
    15a8:	49 81       	ldd	r20, Y+1	; 0x01
    15aa:	5a 81       	ldd	r21, Y+2	; 0x02
    15ac:	24 e1       	ldi	r18, 0x14	; 20
    15ae:	6e 81       	ldd	r22, Y+6	; 0x06
    15b0:	80 ee       	ldi	r24, 0xE0	; 224
    15b2:	97 e0       	ldi	r25, 0x07	; 7
    15b4:	0e 94 77 0c 	call	0x18ee	; 0x18ee <GraphicsClearArea>
    15b8:	ca cf       	rjmp	.-108    	; 0x154e <PingPongPlay+0x30>
    15ba:	26 96       	adiw	r28, 0x06	; 6
    15bc:	0f b6       	in	r0, 0x3f	; 63
    15be:	f8 94       	cli
    15c0:	de bf       	out	0x3e, r29	; 62
    15c2:	0f be       	out	0x3f, r0	; 63
    15c4:	cd bf       	out	0x3d, r28	; 61
    15c6:	df 91       	pop	r29
    15c8:	cf 91       	pop	r28
    15ca:	1f 91       	pop	r17
    15cc:	0f 91       	pop	r16
    15ce:	08 95       	ret

000015d0 <ButtonDisplay>:
    15d0:	0f 93       	push	r16
    15d2:	1f 93       	push	r17
    15d4:	cf 93       	push	r28
    15d6:	df 93       	push	r29
    15d8:	ec 01       	movw	r28, r24
    15da:	0a 85       	ldd	r16, Y+10	; 0x0a
    15dc:	1b 85       	ldd	r17, Y+11	; 0x0b
    15de:	4f 81       	ldd	r20, Y+7	; 0x07
    15e0:	58 85       	ldd	r21, Y+8	; 0x08
    15e2:	29 85       	ldd	r18, Y+9	; 0x09
    15e4:	6e 81       	ldd	r22, Y+6	; 0x06
    15e6:	8c 81       	ldd	r24, Y+4	; 0x04
    15e8:	9d 81       	ldd	r25, Y+5	; 0x05
    15ea:	0e 94 77 0c 	call	0x18ee	; 0x18ee <GraphicsClearArea>
    15ee:	a8 81       	ld	r26, Y
    15f0:	b9 81       	ldd	r27, Y+1	; 0x01
    15f2:	fd 01       	movw	r30, r26
    15f4:	01 90       	ld	r0, Z+
    15f6:	00 20       	and	r0, r0
    15f8:	e9 f7       	brne	.-6      	; 0x15f4 <ButtonDisplay+0x24>
    15fa:	31 97       	sbiw	r30, 0x01	; 1
    15fc:	ea 1b       	sub	r30, r26
    15fe:	fb 0b       	sbc	r31, r27
    1600:	0f 81       	ldd	r16, Y+7	; 0x07
    1602:	18 85       	ldd	r17, Y+8	; 0x08
    1604:	08 50       	subi	r16, 0x08	; 8
    1606:	11 09       	sbc	r17, r1
    1608:	2a 85       	ldd	r18, Y+10	; 0x0a
    160a:	3b 85       	ldd	r19, Y+11	; 0x0b
    160c:	36 95       	lsr	r19
    160e:	27 95       	ror	r18
    1610:	02 0f       	add	r16, r18
    1612:	13 1f       	adc	r17, r19
    1614:	29 85       	ldd	r18, Y+9	; 0x09
    1616:	26 95       	lsr	r18
    1618:	9e 81       	ldd	r25, Y+6	; 0x06
    161a:	29 0f       	add	r18, r25
    161c:	84 e0       	ldi	r24, 0x04	; 4
    161e:	e8 9f       	mul	r30, r24
    1620:	20 19       	sub	r18, r0
    1622:	11 24       	eor	r1, r1
    1624:	4c 81       	ldd	r20, Y+4	; 0x04
    1626:	5d 81       	ldd	r21, Y+5	; 0x05
    1628:	6a 81       	ldd	r22, Y+2	; 0x02
    162a:	7b 81       	ldd	r23, Y+3	; 0x03
    162c:	cd 01       	movw	r24, r26
    162e:	0e 94 f6 0b 	call	0x17ec	; 0x17ec <FontDisplayString>
    1632:	df 91       	pop	r29
    1634:	cf 91       	pop	r28
    1636:	1f 91       	pop	r17
    1638:	0f 91       	pop	r16
    163a:	08 95       	ret

0000163c <ButtonCreate>:
    163c:	4f 92       	push	r4
    163e:	5f 92       	push	r5
    1640:	6f 92       	push	r6
    1642:	7f 92       	push	r7
    1644:	8f 92       	push	r8
    1646:	9f 92       	push	r9
    1648:	af 92       	push	r10
    164a:	bf 92       	push	r11
    164c:	cf 92       	push	r12
    164e:	ef 92       	push	r14
    1650:	ff 92       	push	r15
    1652:	0f 93       	push	r16
    1654:	cf 93       	push	r28
    1656:	df 93       	push	r29
    1658:	1f 92       	push	r1
    165a:	cd b7       	in	r28, 0x3d	; 61
    165c:	de b7       	in	r29, 0x3e	; 62
    165e:	4c 01       	movw	r8, r24
    1660:	2a 01       	movw	r4, r20
    1662:	39 01       	movw	r6, r18
    1664:	8f e0       	ldi	r24, 0x0F	; 15
    1666:	90 e0       	ldi	r25, 0x00	; 0
    1668:	69 83       	std	Y+1, r22	; 0x01
    166a:	0e 94 c6 17 	call	0x2f8c	; 0x2f8c <malloc>
    166e:	fc 01       	movw	r30, r24
    1670:	91 82       	std	Z+1, r9	; 0x01
    1672:	80 82       	st	Z, r8
    1674:	06 83       	std	Z+6, r16	; 0x06
    1676:	f0 86       	std	Z+8, r15	; 0x08
    1678:	e7 82       	std	Z+7, r14	; 0x07
    167a:	c1 86       	std	Z+9, r12	; 0x09
    167c:	b3 86       	std	Z+11, r11	; 0x0b
    167e:	a2 86       	std	Z+10, r10	; 0x0a
    1680:	75 82       	std	Z+5, r7	; 0x05
    1682:	64 82       	std	Z+4, r6	; 0x04
    1684:	53 82       	std	Z+3, r5	; 0x03
    1686:	42 82       	std	Z+2, r4	; 0x02
    1688:	69 81       	ldd	r22, Y+1	; 0x01
    168a:	64 87       	std	Z+12, r22	; 0x0c
    168c:	88 ee       	ldi	r24, 0xE8	; 232
    168e:	9a e0       	ldi	r25, 0x0A	; 10
    1690:	96 87       	std	Z+14, r25	; 0x0e
    1692:	85 87       	std	Z+13, r24	; 0x0d
    1694:	cf 01       	movw	r24, r30
    1696:	0f 90       	pop	r0
    1698:	df 91       	pop	r29
    169a:	cf 91       	pop	r28
    169c:	0f 91       	pop	r16
    169e:	ff 90       	pop	r15
    16a0:	ef 90       	pop	r14
    16a2:	cf 90       	pop	r12
    16a4:	bf 90       	pop	r11
    16a6:	af 90       	pop	r10
    16a8:	9f 90       	pop	r9
    16aa:	8f 90       	pop	r8
    16ac:	7f 90       	pop	r7
    16ae:	6f 90       	pop	r6
    16b0:	5f 90       	pop	r5
    16b2:	4f 90       	pop	r4
    16b4:	08 95       	ret

000016b6 <ButtonDestroy>:
    16b6:	0e 94 5b 18 	call	0x30b6	; 0x30b6 <free>
    16ba:	80 e0       	ldi	r24, 0x00	; 0
    16bc:	90 e0       	ldi	r25, 0x00	; 0
    16be:	08 95       	ret

000016c0 <ButtonCheck>:
    16c0:	fc 01       	movw	r30, r24
    16c2:	20 91 f5 00 	lds	r18, 0x00F5	; 0x8000f5 <touchPoint>
    16c6:	24 51       	subi	r18, 0x14	; 20
    16c8:	60 91 f6 00 	lds	r22, 0x00F6	; 0x8000f6 <touchPoint+0x1>
    16cc:	70 91 f7 00 	lds	r23, 0x00F7	; 0x8000f7 <touchPoint+0x2>
    16d0:	86 81       	ldd	r24, Z+6	; 0x06
    16d2:	28 17       	cp	r18, r24
    16d4:	c0 f0       	brcs	.+48     	; 0x1706 <ButtonCheck+0x46>
    16d6:	30 e0       	ldi	r19, 0x00	; 0
    16d8:	41 85       	ldd	r20, Z+9	; 0x09
    16da:	50 e0       	ldi	r21, 0x00	; 0
    16dc:	48 0f       	add	r20, r24
    16de:	51 1d       	adc	r21, r1
    16e0:	42 17       	cp	r20, r18
    16e2:	53 07       	cpc	r21, r19
    16e4:	84 f0       	brlt	.+32     	; 0x1706 <ButtonCheck+0x46>
    16e6:	9b 01       	movw	r18, r22
    16e8:	22 50       	subi	r18, 0x02	; 2
    16ea:	31 09       	sbc	r19, r1
    16ec:	47 81       	ldd	r20, Z+7	; 0x07
    16ee:	50 85       	ldd	r21, Z+8	; 0x08
    16f0:	24 17       	cp	r18, r20
    16f2:	35 07       	cpc	r19, r21
    16f4:	40 f0       	brcs	.+16     	; 0x1706 <ButtonCheck+0x46>
    16f6:	82 85       	ldd	r24, Z+10	; 0x0a
    16f8:	93 85       	ldd	r25, Z+11	; 0x0b
    16fa:	48 0f       	add	r20, r24
    16fc:	59 1f       	adc	r21, r25
    16fe:	81 e0       	ldi	r24, 0x01	; 1
    1700:	42 17       	cp	r20, r18
    1702:	53 07       	cpc	r21, r19
    1704:	08 f4       	brcc	.+2      	; 0x1708 <ButtonCheck+0x48>
    1706:	80 e0       	ldi	r24, 0x00	; 0
    1708:	08 95       	ret

0000170a <FontDisplayChar>:
    170a:	9f 92       	push	r9
    170c:	af 92       	push	r10
    170e:	bf 92       	push	r11
    1710:	cf 92       	push	r12
    1712:	df 92       	push	r13
    1714:	ef 92       	push	r14
    1716:	ff 92       	push	r15
    1718:	0f 93       	push	r16
    171a:	1f 93       	push	r17
    171c:	cf 93       	push	r28
    171e:	df 93       	push	r29
    1720:	b8 2e       	mov	r11, r24
    1722:	7b 01       	movw	r14, r22
    1724:	6a 01       	movw	r12, r20
    1726:	c2 2f       	mov	r28, r18
    1728:	60 e3       	ldi	r22, 0x30	; 48
    172a:	72 e1       	ldi	r23, 0x12	; 18
    172c:	83 e0       	ldi	r24, 0x03	; 3
    172e:	90 e0       	ldi	r25, 0x00	; 0
    1730:	0e 94 5b 10 	call	0x20b6	; 0x20b6 <LCDWriteReg>
    1734:	d0 e0       	ldi	r29, 0x00	; 0
    1736:	be 01       	movw	r22, r28
    1738:	80 e1       	ldi	r24, 0x10	; 16
    173a:	92 e0       	ldi	r25, 0x02	; 2
    173c:	0e 94 5b 10 	call	0x20b6	; 0x20b6 <LCDWriteReg>
    1740:	b8 01       	movw	r22, r16
    1742:	82 e1       	ldi	r24, 0x12	; 18
    1744:	92 e0       	ldi	r25, 0x02	; 2
    1746:	0e 94 5b 10 	call	0x20b6	; 0x20b6 <LCDWriteReg>
    174a:	be 01       	movw	r22, r28
    174c:	69 5f       	subi	r22, 0xF9	; 249
    174e:	7f 4f       	sbci	r23, 0xFF	; 255
    1750:	81 e1       	ldi	r24, 0x11	; 17
    1752:	92 e0       	ldi	r25, 0x02	; 2
    1754:	0e 94 5b 10 	call	0x20b6	; 0x20b6 <LCDWriteReg>
    1758:	b8 01       	movw	r22, r16
    175a:	61 5f       	subi	r22, 0xF1	; 241
    175c:	7f 4f       	sbci	r23, 0xFF	; 255
    175e:	83 e1       	ldi	r24, 0x13	; 19
    1760:	92 e0       	ldi	r25, 0x02	; 2
    1762:	0e 94 5b 10 	call	0x20b6	; 0x20b6 <LCDWriteReg>
    1766:	be 01       	movw	r22, r28
    1768:	80 e0       	ldi	r24, 0x00	; 0
    176a:	92 e0       	ldi	r25, 0x02	; 2
    176c:	0e 94 5b 10 	call	0x20b6	; 0x20b6 <LCDWriteReg>
    1770:	b8 01       	movw	r22, r16
    1772:	81 e0       	ldi	r24, 0x01	; 1
    1774:	92 e0       	ldi	r25, 0x02	; 2
    1776:	0e 94 5b 10 	call	0x20b6	; 0x20b6 <LCDWriteReg>
    177a:	82 e0       	ldi	r24, 0x02	; 2
    177c:	92 e0       	ldi	r25, 0x02	; 2
    177e:	0e 94 4d 10 	call	0x209a	; 0x209a <LCDWriteIndex>
    1782:	c2 98       	cbi	0x18, 2	; 24
    1784:	c1 9a       	sbi	0x18, 1	; 24
    1786:	80 e1       	ldi	r24, 0x10	; 16
    1788:	b8 9e       	mul	r11, r24
    178a:	80 01       	movw	r16, r0
    178c:	11 24       	eor	r1, r1
    178e:	a1 2c       	mov	r10, r1
    1790:	b1 2c       	mov	r11, r1
    1792:	f5 01       	movw	r30, r10
    1794:	e0 0f       	add	r30, r16
    1796:	f1 1f       	adc	r31, r17
    1798:	e0 58       	subi	r30, 0x80	; 128
    179a:	ff 4f       	sbci	r31, 0xFF	; 255
    179c:	c4 91       	lpm	r28, Z
    179e:	d8 e0       	ldi	r29, 0x08	; 8
    17a0:	80 e8       	ldi	r24, 0x80	; 128
    17a2:	98 2e       	mov	r9, r24
    17a4:	89 2d       	mov	r24, r9
    17a6:	8c 23       	and	r24, r28
    17a8:	11 f0       	breq	.+4      	; 0x17ae <FontDisplayChar+0xa4>
    17aa:	c7 01       	movw	r24, r14
    17ac:	01 c0       	rjmp	.+2      	; 0x17b0 <FontDisplayChar+0xa6>
    17ae:	c6 01       	movw	r24, r12
    17b0:	0e 94 7c 10 	call	0x20f8	; 0x20f8 <LCDWriteData>
    17b4:	96 94       	lsr	r9
    17b6:	d1 50       	subi	r29, 0x01	; 1
    17b8:	a9 f7       	brne	.-22     	; 0x17a4 <FontDisplayChar+0x9a>
    17ba:	8f ef       	ldi	r24, 0xFF	; 255
    17bc:	a8 1a       	sub	r10, r24
    17be:	b8 0a       	sbc	r11, r24
    17c0:	80 e1       	ldi	r24, 0x10	; 16
    17c2:	a8 16       	cp	r10, r24
    17c4:	b1 04       	cpc	r11, r1
    17c6:	29 f7       	brne	.-54     	; 0x1792 <FontDisplayChar+0x88>
    17c8:	c2 9a       	sbi	0x18, 2	; 24
    17ca:	60 e3       	ldi	r22, 0x30	; 48
    17cc:	70 e1       	ldi	r23, 0x10	; 16
    17ce:	83 e0       	ldi	r24, 0x03	; 3
    17d0:	90 e0       	ldi	r25, 0x00	; 0
    17d2:	df 91       	pop	r29
    17d4:	cf 91       	pop	r28
    17d6:	1f 91       	pop	r17
    17d8:	0f 91       	pop	r16
    17da:	ff 90       	pop	r15
    17dc:	ef 90       	pop	r14
    17de:	df 90       	pop	r13
    17e0:	cf 90       	pop	r12
    17e2:	bf 90       	pop	r11
    17e4:	af 90       	pop	r10
    17e6:	9f 90       	pop	r9
    17e8:	0c 94 5b 10 	jmp	0x20b6	; 0x20b6 <LCDWriteReg>

000017ec <FontDisplayString>:
    17ec:	8f 92       	push	r8
    17ee:	9f 92       	push	r9
    17f0:	af 92       	push	r10
    17f2:	bf 92       	push	r11
    17f4:	cf 92       	push	r12
    17f6:	df 92       	push	r13
    17f8:	ef 92       	push	r14
    17fa:	ff 92       	push	r15
    17fc:	0f 93       	push	r16
    17fe:	1f 93       	push	r17
    1800:	cf 93       	push	r28
    1802:	5b 01       	movw	r10, r22
    1804:	4a 01       	movw	r8, r20
    1806:	c2 2f       	mov	r28, r18
    1808:	78 01       	movw	r14, r16
    180a:	6c 01       	movw	r12, r24
    180c:	f6 01       	movw	r30, r12
    180e:	81 91       	ld	r24, Z+
    1810:	6f 01       	movw	r12, r30
    1812:	88 23       	and	r24, r24
    1814:	99 f0       	breq	.+38     	; 0x183c <FontDisplayString+0x50>
    1816:	95 e2       	ldi	r25, 0x25	; 37
    1818:	e9 16       	cp	r14, r25
    181a:	91 e0       	ldi	r25, 0x01	; 1
    181c:	f9 06       	cpc	r15, r25
    181e:	70 f4       	brcc	.+28     	; 0x183c <FontDisplayString+0x50>
    1820:	cf 3d       	cpi	r28, 0xDF	; 223
    1822:	20 f0       	brcs	.+8      	; 0x182c <FontDisplayString+0x40>
    1824:	e0 e1       	ldi	r30, 0x10	; 16
    1826:	ee 0e       	add	r14, r30
    1828:	f1 1c       	adc	r15, r1
    182a:	c0 e0       	ldi	r28, 0x00	; 0
    182c:	87 01       	movw	r16, r14
    182e:	2c 2f       	mov	r18, r28
    1830:	a4 01       	movw	r20, r8
    1832:	b5 01       	movw	r22, r10
    1834:	0e 94 85 0b 	call	0x170a	; 0x170a <FontDisplayChar>
    1838:	c8 5f       	subi	r28, 0xF8	; 248
    183a:	e8 cf       	rjmp	.-48     	; 0x180c <FontDisplayString+0x20>
    183c:	cf 91       	pop	r28
    183e:	1f 91       	pop	r17
    1840:	0f 91       	pop	r16
    1842:	ff 90       	pop	r15
    1844:	ef 90       	pop	r14
    1846:	df 90       	pop	r13
    1848:	cf 90       	pop	r12
    184a:	bf 90       	pop	r11
    184c:	af 90       	pop	r10
    184e:	9f 90       	pop	r9
    1850:	8f 90       	pop	r8
    1852:	08 95       	ret

00001854 <GraphicsClearScreen>:
    1854:	ef 92       	push	r14
    1856:	ff 92       	push	r15
    1858:	0f 93       	push	r16
    185a:	1f 93       	push	r17
    185c:	cf 93       	push	r28
    185e:	7c 01       	movw	r14, r24
    1860:	60 e3       	ldi	r22, 0x30	; 48
    1862:	72 e1       	ldi	r23, 0x12	; 18
    1864:	83 e0       	ldi	r24, 0x03	; 3
    1866:	90 e0       	ldi	r25, 0x00	; 0
    1868:	0e 94 5b 10 	call	0x20b6	; 0x20b6 <LCDWriteReg>
    186c:	60 e0       	ldi	r22, 0x00	; 0
    186e:	70 e0       	ldi	r23, 0x00	; 0
    1870:	80 e1       	ldi	r24, 0x10	; 16
    1872:	92 e0       	ldi	r25, 0x02	; 2
    1874:	0e 94 5b 10 	call	0x20b6	; 0x20b6 <LCDWriteReg>
    1878:	60 e0       	ldi	r22, 0x00	; 0
    187a:	70 e0       	ldi	r23, 0x00	; 0
    187c:	82 e1       	ldi	r24, 0x12	; 18
    187e:	92 e0       	ldi	r25, 0x02	; 2
    1880:	0e 94 5b 10 	call	0x20b6	; 0x20b6 <LCDWriteReg>
    1884:	6f ee       	ldi	r22, 0xEF	; 239
    1886:	70 e0       	ldi	r23, 0x00	; 0
    1888:	81 e1       	ldi	r24, 0x11	; 17
    188a:	92 e0       	ldi	r25, 0x02	; 2
    188c:	0e 94 5b 10 	call	0x20b6	; 0x20b6 <LCDWriteReg>
    1890:	6f e3       	ldi	r22, 0x3F	; 63
    1892:	71 e0       	ldi	r23, 0x01	; 1
    1894:	83 e1       	ldi	r24, 0x13	; 19
    1896:	92 e0       	ldi	r25, 0x02	; 2
    1898:	0e 94 5b 10 	call	0x20b6	; 0x20b6 <LCDWriteReg>
    189c:	60 e0       	ldi	r22, 0x00	; 0
    189e:	70 e0       	ldi	r23, 0x00	; 0
    18a0:	80 e0       	ldi	r24, 0x00	; 0
    18a2:	92 e0       	ldi	r25, 0x02	; 2
    18a4:	0e 94 5b 10 	call	0x20b6	; 0x20b6 <LCDWriteReg>
    18a8:	60 e0       	ldi	r22, 0x00	; 0
    18aa:	70 e0       	ldi	r23, 0x00	; 0
    18ac:	81 e0       	ldi	r24, 0x01	; 1
    18ae:	92 e0       	ldi	r25, 0x02	; 2
    18b0:	0e 94 5b 10 	call	0x20b6	; 0x20b6 <LCDWriteReg>
    18b4:	82 e0       	ldi	r24, 0x02	; 2
    18b6:	92 e0       	ldi	r25, 0x02	; 2
    18b8:	0e 94 4d 10 	call	0x209a	; 0x209a <LCDWriteIndex>
    18bc:	c2 98       	cbi	0x18, 2	; 24
    18be:	c1 9a       	sbi	0x18, 1	; 24
    18c0:	00 e4       	ldi	r16, 0x40	; 64
    18c2:	11 e0       	ldi	r17, 0x01	; 1
    18c4:	c0 ef       	ldi	r28, 0xF0	; 240
    18c6:	c7 01       	movw	r24, r14
    18c8:	0e 94 7c 10 	call	0x20f8	; 0x20f8 <LCDWriteData>
    18cc:	c1 50       	subi	r28, 0x01	; 1
    18ce:	d9 f7       	brne	.-10     	; 0x18c6 <GraphicsClearScreen+0x72>
    18d0:	01 50       	subi	r16, 0x01	; 1
    18d2:	11 09       	sbc	r17, r1
    18d4:	b9 f7       	brne	.-18     	; 0x18c4 <GraphicsClearScreen+0x70>
    18d6:	c2 9a       	sbi	0x18, 2	; 24
    18d8:	60 e3       	ldi	r22, 0x30	; 48
    18da:	70 e1       	ldi	r23, 0x10	; 16
    18dc:	83 e0       	ldi	r24, 0x03	; 3
    18de:	90 e0       	ldi	r25, 0x00	; 0
    18e0:	cf 91       	pop	r28
    18e2:	1f 91       	pop	r17
    18e4:	0f 91       	pop	r16
    18e6:	ff 90       	pop	r15
    18e8:	ef 90       	pop	r14
    18ea:	0c 94 5b 10 	jmp	0x20b6	; 0x20b6 <LCDWriteReg>

000018ee <GraphicsClearArea>:
    18ee:	9f 92       	push	r9
    18f0:	af 92       	push	r10
    18f2:	bf 92       	push	r11
    18f4:	cf 92       	push	r12
    18f6:	df 92       	push	r13
    18f8:	ef 92       	push	r14
    18fa:	ff 92       	push	r15
    18fc:	0f 93       	push	r16
    18fe:	1f 93       	push	r17
    1900:	cf 93       	push	r28
    1902:	df 93       	push	r29
    1904:	5c 01       	movw	r10, r24
    1906:	7a 01       	movw	r14, r20
    1908:	92 2e       	mov	r9, r18
    190a:	68 01       	movw	r12, r16
    190c:	c6 2f       	mov	r28, r22
    190e:	d0 e0       	ldi	r29, 0x00	; 0
    1910:	be 01       	movw	r22, r28
    1912:	80 e1       	ldi	r24, 0x10	; 16
    1914:	92 e0       	ldi	r25, 0x02	; 2
    1916:	0e 94 5b 10 	call	0x20b6	; 0x20b6 <LCDWriteReg>
    191a:	b7 01       	movw	r22, r14
    191c:	82 e1       	ldi	r24, 0x12	; 18
    191e:	92 e0       	ldi	r25, 0x02	; 2
    1920:	0e 94 5b 10 	call	0x20b6	; 0x20b6 <LCDWriteReg>
    1924:	be 01       	movw	r22, r28
    1926:	69 0d       	add	r22, r9
    1928:	71 1d       	adc	r23, r1
    192a:	61 50       	subi	r22, 0x01	; 1
    192c:	71 09       	sbc	r23, r1
    192e:	81 e1       	ldi	r24, 0x11	; 17
    1930:	92 e0       	ldi	r25, 0x02	; 2
    1932:	0e 94 5b 10 	call	0x20b6	; 0x20b6 <LCDWriteReg>
    1936:	b8 01       	movw	r22, r16
    1938:	61 50       	subi	r22, 0x01	; 1
    193a:	71 09       	sbc	r23, r1
    193c:	6e 0d       	add	r22, r14
    193e:	7f 1d       	adc	r23, r15
    1940:	83 e1       	ldi	r24, 0x13	; 19
    1942:	92 e0       	ldi	r25, 0x02	; 2
    1944:	0e 94 5b 10 	call	0x20b6	; 0x20b6 <LCDWriteReg>
    1948:	be 01       	movw	r22, r28
    194a:	80 e0       	ldi	r24, 0x00	; 0
    194c:	92 e0       	ldi	r25, 0x02	; 2
    194e:	0e 94 5b 10 	call	0x20b6	; 0x20b6 <LCDWriteReg>
    1952:	b7 01       	movw	r22, r14
    1954:	81 e0       	ldi	r24, 0x01	; 1
    1956:	92 e0       	ldi	r25, 0x02	; 2
    1958:	0e 94 5b 10 	call	0x20b6	; 0x20b6 <LCDWriteReg>
    195c:	c1 98       	cbi	0x18, 1	; 24
    195e:	82 e0       	ldi	r24, 0x02	; 2
    1960:	92 e0       	ldi	r25, 0x02	; 2
    1962:	0e 94 4d 10 	call	0x209a	; 0x209a <LCDWriteIndex>
    1966:	c2 98       	cbi	0x18, 2	; 24
    1968:	c0 e0       	ldi	r28, 0x00	; 0
    196a:	d0 e0       	ldi	r29, 0x00	; 0
    196c:	cc 15       	cp	r28, r12
    196e:	dd 05       	cpc	r29, r13
    1970:	51 f0       	breq	.+20     	; 0x1986 <GraphicsClearArea+0x98>
    1972:	10 e0       	ldi	r17, 0x00	; 0
    1974:	19 15       	cp	r17, r9
    1976:	29 f0       	breq	.+10     	; 0x1982 <GraphicsClearArea+0x94>
    1978:	c5 01       	movw	r24, r10
    197a:	0e 94 7c 10 	call	0x20f8	; 0x20f8 <LCDWriteData>
    197e:	1f 5f       	subi	r17, 0xFF	; 255
    1980:	f9 cf       	rjmp	.-14     	; 0x1974 <GraphicsClearArea+0x86>
    1982:	21 96       	adiw	r28, 0x01	; 1
    1984:	f3 cf       	rjmp	.-26     	; 0x196c <GraphicsClearArea+0x7e>
    1986:	c2 9a       	sbi	0x18, 2	; 24
    1988:	df 91       	pop	r29
    198a:	cf 91       	pop	r28
    198c:	1f 91       	pop	r17
    198e:	0f 91       	pop	r16
    1990:	ff 90       	pop	r15
    1992:	ef 90       	pop	r14
    1994:	df 90       	pop	r13
    1996:	cf 90       	pop	r12
    1998:	bf 90       	pop	r11
    199a:	af 90       	pop	r10
    199c:	9f 90       	pop	r9
    199e:	08 95       	ret

000019a0 <GraphicsSetCursor>:
    19a0:	cf 93       	push	r28
    19a2:	df 93       	push	r29
    19a4:	61 3f       	cpi	r22, 0xF1	; 241
    19a6:	71 05       	cpc	r23, r1
    19a8:	70 f4       	brcc	.+28     	; 0x19c6 <GraphicsSetCursor+0x26>
    19aa:	eb 01       	movw	r28, r22
    19ac:	68 2f       	mov	r22, r24
    19ae:	70 e0       	ldi	r23, 0x00	; 0
    19b0:	80 e0       	ldi	r24, 0x00	; 0
    19b2:	92 e0       	ldi	r25, 0x02	; 2
    19b4:	0e 94 5b 10 	call	0x20b6	; 0x20b6 <LCDWriteReg>
    19b8:	be 01       	movw	r22, r28
    19ba:	81 e0       	ldi	r24, 0x01	; 1
    19bc:	92 e0       	ldi	r25, 0x02	; 2
    19be:	df 91       	pop	r29
    19c0:	cf 91       	pop	r28
    19c2:	0c 94 5b 10 	jmp	0x20b6	; 0x20b6 <LCDWriteReg>
    19c6:	df 91       	pop	r29
    19c8:	cf 91       	pop	r28
    19ca:	08 95       	ret

000019cc <GraphicsPutPixel>:
    19cc:	ef 92       	push	r14
    19ce:	ff 92       	push	r15
    19d0:	0f 93       	push	r16
    19d2:	1f 93       	push	r17
    19d4:	cf 93       	push	r28
    19d6:	df 93       	push	r29
    19d8:	7c 01       	movw	r14, r24
    19da:	c6 2f       	mov	r28, r22
    19dc:	8a 01       	movw	r16, r20
    19de:	60 e3       	ldi	r22, 0x30	; 48
    19e0:	72 e1       	ldi	r23, 0x12	; 18
    19e2:	83 e0       	ldi	r24, 0x03	; 3
    19e4:	90 e0       	ldi	r25, 0x00	; 0
    19e6:	0e 94 5b 10 	call	0x20b6	; 0x20b6 <LCDWriteReg>
    19ea:	d0 e0       	ldi	r29, 0x00	; 0
    19ec:	be 01       	movw	r22, r28
    19ee:	80 e1       	ldi	r24, 0x10	; 16
    19f0:	92 e0       	ldi	r25, 0x02	; 2
    19f2:	0e 94 5b 10 	call	0x20b6	; 0x20b6 <LCDWriteReg>
    19f6:	b8 01       	movw	r22, r16
    19f8:	82 e1       	ldi	r24, 0x12	; 18
    19fa:	92 e0       	ldi	r25, 0x02	; 2
    19fc:	0e 94 5b 10 	call	0x20b6	; 0x20b6 <LCDWriteReg>
    1a00:	be 01       	movw	r22, r28
    1a02:	81 e1       	ldi	r24, 0x11	; 17
    1a04:	92 e0       	ldi	r25, 0x02	; 2
    1a06:	0e 94 5b 10 	call	0x20b6	; 0x20b6 <LCDWriteReg>
    1a0a:	b8 01       	movw	r22, r16
    1a0c:	83 e1       	ldi	r24, 0x13	; 19
    1a0e:	92 e0       	ldi	r25, 0x02	; 2
    1a10:	0e 94 5b 10 	call	0x20b6	; 0x20b6 <LCDWriteReg>
    1a14:	be 01       	movw	r22, r28
    1a16:	80 e0       	ldi	r24, 0x00	; 0
    1a18:	92 e0       	ldi	r25, 0x02	; 2
    1a1a:	0e 94 5b 10 	call	0x20b6	; 0x20b6 <LCDWriteReg>
    1a1e:	b8 01       	movw	r22, r16
    1a20:	81 e0       	ldi	r24, 0x01	; 1
    1a22:	92 e0       	ldi	r25, 0x02	; 2
    1a24:	0e 94 5b 10 	call	0x20b6	; 0x20b6 <LCDWriteReg>
    1a28:	82 e0       	ldi	r24, 0x02	; 2
    1a2a:	92 e0       	ldi	r25, 0x02	; 2
    1a2c:	0e 94 4d 10 	call	0x209a	; 0x209a <LCDWriteIndex>
    1a30:	c2 98       	cbi	0x18, 2	; 24
    1a32:	c1 9a       	sbi	0x18, 1	; 24
    1a34:	c7 01       	movw	r24, r14
    1a36:	0e 94 7c 10 	call	0x20f8	; 0x20f8 <LCDWriteData>
    1a3a:	c2 9a       	sbi	0x18, 2	; 24
    1a3c:	60 e3       	ldi	r22, 0x30	; 48
    1a3e:	70 e1       	ldi	r23, 0x10	; 16
    1a40:	83 e0       	ldi	r24, 0x03	; 3
    1a42:	90 e0       	ldi	r25, 0x00	; 0
    1a44:	df 91       	pop	r29
    1a46:	cf 91       	pop	r28
    1a48:	1f 91       	pop	r17
    1a4a:	0f 91       	pop	r16
    1a4c:	ff 90       	pop	r15
    1a4e:	ef 90       	pop	r14
    1a50:	0c 94 5b 10 	jmp	0x20b6	; 0x20b6 <LCDWriteReg>

00001a54 <GraphicsDrawBigDot>:
    1a54:	ef 92       	push	r14
    1a56:	ff 92       	push	r15
    1a58:	0f 93       	push	r16
    1a5a:	1f 93       	push	r17
    1a5c:	cf 93       	push	r28
    1a5e:	df 93       	push	r29
    1a60:	7c 01       	movw	r14, r24
    1a62:	c6 2f       	mov	r28, r22
    1a64:	8a 01       	movw	r16, r20
    1a66:	60 e3       	ldi	r22, 0x30	; 48
    1a68:	72 e1       	ldi	r23, 0x12	; 18
    1a6a:	83 e0       	ldi	r24, 0x03	; 3
    1a6c:	90 e0       	ldi	r25, 0x00	; 0
    1a6e:	0e 94 5b 10 	call	0x20b6	; 0x20b6 <LCDWriteReg>
    1a72:	d0 e0       	ldi	r29, 0x00	; 0
    1a74:	be 01       	movw	r22, r28
    1a76:	61 50       	subi	r22, 0x01	; 1
    1a78:	71 09       	sbc	r23, r1
    1a7a:	80 e1       	ldi	r24, 0x10	; 16
    1a7c:	92 e0       	ldi	r25, 0x02	; 2
    1a7e:	0e 94 5b 10 	call	0x20b6	; 0x20b6 <LCDWriteReg>
    1a82:	b8 01       	movw	r22, r16
    1a84:	61 50       	subi	r22, 0x01	; 1
    1a86:	71 09       	sbc	r23, r1
    1a88:	82 e1       	ldi	r24, 0x12	; 18
    1a8a:	92 e0       	ldi	r25, 0x02	; 2
    1a8c:	0e 94 5b 10 	call	0x20b6	; 0x20b6 <LCDWriteReg>
    1a90:	be 01       	movw	r22, r28
    1a92:	6f 5f       	subi	r22, 0xFF	; 255
    1a94:	7f 4f       	sbci	r23, 0xFF	; 255
    1a96:	81 e1       	ldi	r24, 0x11	; 17
    1a98:	92 e0       	ldi	r25, 0x02	; 2
    1a9a:	0e 94 5b 10 	call	0x20b6	; 0x20b6 <LCDWriteReg>
    1a9e:	b8 01       	movw	r22, r16
    1aa0:	6f 5f       	subi	r22, 0xFF	; 255
    1aa2:	7f 4f       	sbci	r23, 0xFF	; 255
    1aa4:	83 e1       	ldi	r24, 0x13	; 19
    1aa6:	92 e0       	ldi	r25, 0x02	; 2
    1aa8:	0e 94 5b 10 	call	0x20b6	; 0x20b6 <LCDWriteReg>
    1aac:	be 01       	movw	r22, r28
    1aae:	80 e0       	ldi	r24, 0x00	; 0
    1ab0:	92 e0       	ldi	r25, 0x02	; 2
    1ab2:	0e 94 5b 10 	call	0x20b6	; 0x20b6 <LCDWriteReg>
    1ab6:	b8 01       	movw	r22, r16
    1ab8:	81 e0       	ldi	r24, 0x01	; 1
    1aba:	92 e0       	ldi	r25, 0x02	; 2
    1abc:	0e 94 5b 10 	call	0x20b6	; 0x20b6 <LCDWriteReg>
    1ac0:	82 e0       	ldi	r24, 0x02	; 2
    1ac2:	92 e0       	ldi	r25, 0x02	; 2
    1ac4:	0e 94 4d 10 	call	0x209a	; 0x209a <LCDWriteIndex>
    1ac8:	c2 98       	cbi	0x18, 2	; 24
    1aca:	c1 9a       	sbi	0x18, 1	; 24
    1acc:	c9 e0       	ldi	r28, 0x09	; 9
    1ace:	d0 e0       	ldi	r29, 0x00	; 0
    1ad0:	c7 01       	movw	r24, r14
    1ad2:	0e 94 7c 10 	call	0x20f8	; 0x20f8 <LCDWriteData>
    1ad6:	21 97       	sbiw	r28, 0x01	; 1
    1ad8:	d9 f7       	brne	.-10     	; 0x1ad0 <GraphicsDrawBigDot+0x7c>
    1ada:	c2 9a       	sbi	0x18, 2	; 24
    1adc:	60 e3       	ldi	r22, 0x30	; 48
    1ade:	70 e1       	ldi	r23, 0x10	; 16
    1ae0:	83 e0       	ldi	r24, 0x03	; 3
    1ae2:	90 e0       	ldi	r25, 0x00	; 0
    1ae4:	df 91       	pop	r29
    1ae6:	cf 91       	pop	r28
    1ae8:	1f 91       	pop	r17
    1aea:	0f 91       	pop	r16
    1aec:	ff 90       	pop	r15
    1aee:	ef 90       	pop	r14
    1af0:	0c 94 5b 10 	jmp	0x20b6	; 0x20b6 <LCDWriteReg>

00001af4 <GraphicsDrawCircle>:
    1af4:	2f 92       	push	r2
    1af6:	3f 92       	push	r3
    1af8:	4f 92       	push	r4
    1afa:	5f 92       	push	r5
    1afc:	6f 92       	push	r6
    1afe:	7f 92       	push	r7
    1b00:	8f 92       	push	r8
    1b02:	9f 92       	push	r9
    1b04:	af 92       	push	r10
    1b06:	bf 92       	push	r11
    1b08:	cf 92       	push	r12
    1b0a:	df 92       	push	r13
    1b0c:	ef 92       	push	r14
    1b0e:	ff 92       	push	r15
    1b10:	0f 93       	push	r16
    1b12:	1f 93       	push	r17
    1b14:	cf 93       	push	r28
    1b16:	df 93       	push	r29
    1b18:	cd b7       	in	r28, 0x3d	; 61
    1b1a:	de b7       	in	r29, 0x3e	; 62
    1b1c:	60 97       	sbiw	r28, 0x10	; 16
    1b1e:	0f b6       	in	r0, 0x3f	; 63
    1b20:	f8 94       	cli
    1b22:	de bf       	out	0x3e, r29	; 62
    1b24:	0f be       	out	0x3f, r0	; 63
    1b26:	cd bf       	out	0x3d, r28	; 61
    1b28:	8c 01       	movw	r16, r24
    1b2a:	8c e4       	ldi	r24, 0x4C	; 76
    1b2c:	28 2e       	mov	r2, r24
    1b2e:	33 24       	eor	r3, r3
    1b30:	3a 94       	dec	r3
    1b32:	82 2f       	mov	r24, r18
    1b34:	90 e0       	ldi	r25, 0x00	; 0
    1b36:	a0 e0       	ldi	r26, 0x00	; 0
    1b38:	b0 e0       	ldi	r27, 0x00	; 0
    1b3a:	89 83       	std	Y+1, r24	; 0x01
    1b3c:	9a 83       	std	Y+2, r25	; 0x02
    1b3e:	ab 83       	std	Y+3, r26	; 0x03
    1b40:	bc 83       	std	Y+4, r27	; 0x04
    1b42:	ca 01       	movw	r24, r20
    1b44:	a0 e0       	ldi	r26, 0x00	; 0
    1b46:	b0 e0       	ldi	r27, 0x00	; 0
    1b48:	8d 83       	std	Y+5, r24	; 0x05
    1b4a:	9e 83       	std	Y+6, r25	; 0x06
    1b4c:	af 83       	std	Y+7, r26	; 0x07
    1b4e:	b8 87       	std	Y+8, r27	; 0x08
    1b50:	86 2f       	mov	r24, r22
    1b52:	90 e0       	ldi	r25, 0x00	; 0
    1b54:	a0 e0       	ldi	r26, 0x00	; 0
    1b56:	b0 e0       	ldi	r27, 0x00	; 0
    1b58:	89 87       	std	Y+9, r24	; 0x09
    1b5a:	9a 87       	std	Y+10, r25	; 0x0a
    1b5c:	ab 87       	std	Y+11, r26	; 0x0b
    1b5e:	bc 87       	std	Y+12, r27	; 0x0c
    1b60:	69 81       	ldd	r22, Y+1	; 0x01
    1b62:	7a 81       	ldd	r23, Y+2	; 0x02
    1b64:	8b 81       	ldd	r24, Y+3	; 0x03
    1b66:	9c 81       	ldd	r25, Y+4	; 0x04
    1b68:	0e 94 fe 15 	call	0x2bfc	; 0x2bfc <__floatsisf>
    1b6c:	6b 01       	movw	r12, r22
    1b6e:	7c 01       	movw	r14, r24
    1b70:	b1 01       	movw	r22, r2
    1b72:	03 2c       	mov	r0, r3
    1b74:	00 0c       	add	r0, r0
    1b76:	88 0b       	sbc	r24, r24
    1b78:	99 0b       	sbc	r25, r25
    1b7a:	0e 94 fe 15 	call	0x2bfc	; 0x2bfc <__floatsisf>
    1b7e:	2b ed       	ldi	r18, 0xDB	; 219
    1b80:	3f e0       	ldi	r19, 0x0F	; 15
    1b82:	49 e4       	ldi	r20, 0x49	; 73
    1b84:	50 e4       	ldi	r21, 0x40	; 64
    1b86:	0e 94 c9 16 	call	0x2d92	; 0x2d92 <__mulsf3>
    1b8a:	20 e0       	ldi	r18, 0x00	; 0
    1b8c:	30 e0       	ldi	r19, 0x00	; 0
    1b8e:	44 e3       	ldi	r20, 0x34	; 52
    1b90:	53 e4       	ldi	r21, 0x43	; 67
    1b92:	0e 94 5b 15 	call	0x2ab6	; 0x2ab6 <__divsf3>
    1b96:	4b 01       	movw	r8, r22
    1b98:	5c 01       	movw	r10, r24
    1b9a:	0e 94 5a 17 	call	0x2eb4	; 0x2eb4 <sin>
    1b9e:	9b 01       	movw	r18, r22
    1ba0:	ac 01       	movw	r20, r24
    1ba2:	6d 81       	ldd	r22, Y+5	; 0x05
    1ba4:	7e 81       	ldd	r23, Y+6	; 0x06
    1ba6:	8f 81       	ldd	r24, Y+7	; 0x07
    1ba8:	98 85       	ldd	r25, Y+8	; 0x08
    1baa:	2d 87       	std	Y+13, r18	; 0x0d
    1bac:	3e 87       	std	Y+14, r19	; 0x0e
    1bae:	4f 87       	std	Y+15, r20	; 0x0f
    1bb0:	58 8b       	std	Y+16, r21	; 0x10
    1bb2:	0e 94 fc 15 	call	0x2bf8	; 0x2bf8 <__floatunsisf>
    1bb6:	2b 01       	movw	r4, r22
    1bb8:	3c 01       	movw	r6, r24
    1bba:	2d 85       	ldd	r18, Y+13	; 0x0d
    1bbc:	3e 85       	ldd	r19, Y+14	; 0x0e
    1bbe:	4f 85       	ldd	r20, Y+15	; 0x0f
    1bc0:	58 89       	ldd	r21, Y+16	; 0x10
    1bc2:	c7 01       	movw	r24, r14
    1bc4:	b6 01       	movw	r22, r12
    1bc6:	0e 94 c9 16 	call	0x2d92	; 0x2d92 <__mulsf3>
    1bca:	9b 01       	movw	r18, r22
    1bcc:	ac 01       	movw	r20, r24
    1bce:	c3 01       	movw	r24, r6
    1bd0:	b2 01       	movw	r22, r4
    1bd2:	0e 94 ea 14 	call	0x29d4	; 0x29d4 <__addsf3>
    1bd6:	0e 94 36 17 	call	0x2e6c	; 0x2e6c <round>
    1bda:	2b 01       	movw	r4, r22
    1bdc:	3c 01       	movw	r6, r24
    1bde:	c5 01       	movw	r24, r10
    1be0:	b4 01       	movw	r22, r8
    1be2:	0e 94 56 15 	call	0x2aac	; 0x2aac <cos>
    1be6:	9b 01       	movw	r18, r22
    1be8:	ac 01       	movw	r20, r24
    1bea:	69 85       	ldd	r22, Y+9	; 0x09
    1bec:	7a 85       	ldd	r23, Y+10	; 0x0a
    1bee:	8b 85       	ldd	r24, Y+11	; 0x0b
    1bf0:	9c 85       	ldd	r25, Y+12	; 0x0c
    1bf2:	2d 87       	std	Y+13, r18	; 0x0d
    1bf4:	3e 87       	std	Y+14, r19	; 0x0e
    1bf6:	4f 87       	std	Y+15, r20	; 0x0f
    1bf8:	58 8b       	std	Y+16, r21	; 0x10
    1bfa:	0e 94 fe 15 	call	0x2bfc	; 0x2bfc <__floatsisf>
    1bfe:	4b 01       	movw	r8, r22
    1c00:	5c 01       	movw	r10, r24
    1c02:	2d 85       	ldd	r18, Y+13	; 0x0d
    1c04:	3e 85       	ldd	r19, Y+14	; 0x0e
    1c06:	4f 85       	ldd	r20, Y+15	; 0x0f
    1c08:	58 89       	ldd	r21, Y+16	; 0x10
    1c0a:	c7 01       	movw	r24, r14
    1c0c:	b6 01       	movw	r22, r12
    1c0e:	0e 94 c9 16 	call	0x2d92	; 0x2d92 <__mulsf3>
    1c12:	9b 01       	movw	r18, r22
    1c14:	ac 01       	movw	r20, r24
    1c16:	c5 01       	movw	r24, r10
    1c18:	b4 01       	movw	r22, r8
    1c1a:	0e 94 ea 14 	call	0x29d4	; 0x29d4 <__addsf3>
    1c1e:	0e 94 36 17 	call	0x2e6c	; 0x2e6c <round>
    1c22:	6b 01       	movw	r12, r22
    1c24:	7c 01       	movw	r14, r24
    1c26:	c3 01       	movw	r24, r6
    1c28:	b2 01       	movw	r22, r4
    1c2a:	0e 94 cd 15 	call	0x2b9a	; 0x2b9a <__fixunssfsi>
    1c2e:	4b 01       	movw	r8, r22
    1c30:	5c 01       	movw	r10, r24
    1c32:	c7 01       	movw	r24, r14
    1c34:	b6 01       	movw	r22, r12
    1c36:	0e 94 cd 15 	call	0x2b9a	; 0x2b9a <__fixunssfsi>
    1c3a:	a4 01       	movw	r20, r8
    1c3c:	c8 01       	movw	r24, r16
    1c3e:	0e 94 e6 0c 	call	0x19cc	; 0x19cc <GraphicsPutPixel>
    1c42:	9f ef       	ldi	r25, 0xFF	; 255
    1c44:	29 1a       	sub	r2, r25
    1c46:	39 0a       	sbc	r3, r25
    1c48:	a4 eb       	ldi	r26, 0xB4	; 180
    1c4a:	2a 16       	cp	r2, r26
    1c4c:	31 04       	cpc	r3, r1
    1c4e:	09 f0       	breq	.+2      	; 0x1c52 <GraphicsDrawCircle+0x15e>
    1c50:	87 cf       	rjmp	.-242    	; 0x1b60 <GraphicsDrawCircle+0x6c>
    1c52:	60 96       	adiw	r28, 0x10	; 16
    1c54:	0f b6       	in	r0, 0x3f	; 63
    1c56:	f8 94       	cli
    1c58:	de bf       	out	0x3e, r29	; 62
    1c5a:	0f be       	out	0x3f, r0	; 63
    1c5c:	cd bf       	out	0x3d, r28	; 61
    1c5e:	df 91       	pop	r29
    1c60:	cf 91       	pop	r28
    1c62:	1f 91       	pop	r17
    1c64:	0f 91       	pop	r16
    1c66:	ff 90       	pop	r15
    1c68:	ef 90       	pop	r14
    1c6a:	df 90       	pop	r13
    1c6c:	cf 90       	pop	r12
    1c6e:	bf 90       	pop	r11
    1c70:	af 90       	pop	r10
    1c72:	9f 90       	pop	r9
    1c74:	8f 90       	pop	r8
    1c76:	7f 90       	pop	r7
    1c78:	6f 90       	pop	r6
    1c7a:	5f 90       	pop	r5
    1c7c:	4f 90       	pop	r4
    1c7e:	3f 90       	pop	r3
    1c80:	2f 90       	pop	r2
    1c82:	08 95       	ret

00001c84 <GraphicsDrawLine>:
    1c84:	9f 92       	push	r9
    1c86:	af 92       	push	r10
    1c88:	bf 92       	push	r11
    1c8a:	cf 92       	push	r12
    1c8c:	df 92       	push	r13
    1c8e:	ef 92       	push	r14
    1c90:	ff 92       	push	r15
    1c92:	0f 93       	push	r16
    1c94:	1f 93       	push	r17
    1c96:	cf 93       	push	r28
    1c98:	df 93       	push	r29
    1c9a:	cd b7       	in	r28, 0x3d	; 61
    1c9c:	de b7       	in	r29, 0x3e	; 62
    1c9e:	29 97       	sbiw	r28, 0x09	; 9
    1ca0:	0f b6       	in	r0, 0x3f	; 63
    1ca2:	f8 94       	cli
    1ca4:	de bf       	out	0x3e, r29	; 62
    1ca6:	0f be       	out	0x3f, r0	; 63
    1ca8:	cd bf       	out	0x3d, r28	; 61
    1caa:	6c 01       	movw	r12, r24
    1cac:	6c 83       	std	Y+4, r22	; 0x04
    1cae:	5e 83       	std	Y+6, r21	; 0x06
    1cb0:	4d 83       	std	Y+5, r20	; 0x05
    1cb2:	2f 83       	std	Y+7, r18	; 0x07
    1cb4:	19 87       	std	Y+9, r17	; 0x09
    1cb6:	08 87       	std	Y+8, r16	; 0x08
    1cb8:	c6 01       	movw	r24, r12
    1cba:	0e 94 e6 0c 	call	0x19cc	; 0x19cc <GraphicsPutPixel>
    1cbe:	3c 81       	ldd	r19, Y+4	; 0x04
    1cc0:	2f 81       	ldd	r18, Y+7	; 0x07
    1cc2:	4d 81       	ldd	r20, Y+5	; 0x05
    1cc4:	5e 81       	ldd	r21, Y+6	; 0x06
    1cc6:	88 85       	ldd	r24, Y+8	; 0x08
    1cc8:	99 85       	ldd	r25, Y+9	; 0x09
    1cca:	32 13       	cpse	r19, r18
    1ccc:	04 c0       	rjmp	.+8      	; 0x1cd6 <GraphicsDrawLine+0x52>
    1cce:	48 17       	cp	r20, r24
    1cd0:	59 07       	cpc	r21, r25
    1cd2:	09 f4       	brne	.+2      	; 0x1cd6 <GraphicsDrawLine+0x52>
    1cd4:	4f c0       	rjmp	.+158    	; 0x1d74 <GraphicsDrawLine+0xf0>
    1cd6:	23 1b       	sub	r18, r19
    1cd8:	2b 83       	std	Y+3, r18	; 0x03
    1cda:	84 1b       	sub	r24, r20
    1cdc:	95 0b       	sbc	r25, r21
    1cde:	9a 83       	std	Y+2, r25	; 0x02
    1ce0:	89 83       	std	Y+1, r24	; 0x01
    1ce2:	30 e0       	ldi	r19, 0x00	; 0
    1ce4:	28 17       	cp	r18, r24
    1ce6:	39 07       	cpc	r19, r25
    1ce8:	c0 f4       	brcc	.+48     	; 0x1d1a <GraphicsDrawLine+0x96>
    1cea:	be 01       	movw	r22, r28
    1cec:	6b 5f       	subi	r22, 0xFB	; 251
    1cee:	7f 4f       	sbci	r23, 0xFF	; 255
    1cf0:	ce 01       	movw	r24, r28
    1cf2:	04 96       	adiw	r24, 0x04	; 4
    1cf4:	0e 94 93 04 	call	0x926	; 0x926 <ToolsSwap>
    1cf8:	be 01       	movw	r22, r28
    1cfa:	68 5f       	subi	r22, 0xF8	; 248
    1cfc:	7f 4f       	sbci	r23, 0xFF	; 255
    1cfe:	ce 01       	movw	r24, r28
    1d00:	07 96       	adiw	r24, 0x07	; 7
    1d02:	0e 94 93 04 	call	0x926	; 0x926 <ToolsSwap>
    1d06:	be 01       	movw	r22, r28
    1d08:	6f 5f       	subi	r22, 0xFF	; 255
    1d0a:	7f 4f       	sbci	r23, 0xFF	; 255
    1d0c:	ce 01       	movw	r24, r28
    1d0e:	03 96       	adiw	r24, 0x03	; 3
    1d10:	0e 94 93 04 	call	0x926	; 0x926 <ToolsSwap>
    1d14:	99 24       	eor	r9, r9
    1d16:	93 94       	inc	r9
    1d18:	01 c0       	rjmp	.+2      	; 0x1d1c <GraphicsDrawLine+0x98>
    1d1a:	91 2c       	mov	r9, r1
    1d1c:	1c 81       	ldd	r17, Y+4	; 0x04
    1d1e:	8f 81       	ldd	r24, Y+7	; 0x07
    1d20:	90 e0       	ldi	r25, 0x00	; 0
    1d22:	81 1b       	sub	r24, r17
    1d24:	91 09       	sbc	r25, r1
    1d26:	18 16       	cp	r1, r24
    1d28:	19 06       	cpc	r1, r25
    1d2a:	14 f0       	brlt	.+4      	; 0x1d30 <GraphicsDrawLine+0xac>
    1d2c:	0f ef       	ldi	r16, 0xFF	; 255
    1d2e:	01 c0       	rjmp	.+2      	; 0x1d32 <GraphicsDrawLine+0xae>
    1d30:	01 e0       	ldi	r16, 0x01	; 1
    1d32:	ed 80       	ldd	r14, Y+5	; 0x05
    1d34:	fe 80       	ldd	r15, Y+6	; 0x06
    1d36:	88 85       	ldd	r24, Y+8	; 0x08
    1d38:	99 85       	ldd	r25, Y+9	; 0x09
    1d3a:	8e 15       	cp	r24, r14
    1d3c:	9f 05       	cpc	r25, r15
    1d3e:	11 f4       	brne	.+4      	; 0x1d44 <GraphicsDrawLine+0xc0>
    1d40:	8f ef       	ldi	r24, 0xFF	; 255
    1d42:	01 c0       	rjmp	.+2      	; 0x1d46 <GraphicsDrawLine+0xc2>
    1d44:	81 e0       	ldi	r24, 0x01	; 1
    1d46:	a8 2e       	mov	r10, r24
    1d48:	88 0f       	add	r24, r24
    1d4a:	bb 08       	sbc	r11, r11
    1d4c:	8f 81       	ldd	r24, Y+7	; 0x07
    1d4e:	18 17       	cp	r17, r24
    1d50:	79 f0       	breq	.+30     	; 0x1d70 <GraphicsDrawLine+0xec>
    1d52:	ea 0c       	add	r14, r10
    1d54:	fb 1c       	adc	r15, r11
    1d56:	99 20       	and	r9, r9
    1d58:	21 f0       	breq	.+8      	; 0x1d62 <GraphicsDrawLine+0xde>
    1d5a:	41 2f       	mov	r20, r17
    1d5c:	50 e0       	ldi	r21, 0x00	; 0
    1d5e:	6e 2d       	mov	r22, r14
    1d60:	02 c0       	rjmp	.+4      	; 0x1d66 <GraphicsDrawLine+0xe2>
    1d62:	a7 01       	movw	r20, r14
    1d64:	61 2f       	mov	r22, r17
    1d66:	c6 01       	movw	r24, r12
    1d68:	0e 94 e6 0c 	call	0x19cc	; 0x19cc <GraphicsPutPixel>
    1d6c:	10 0f       	add	r17, r16
    1d6e:	ee cf       	rjmp	.-36     	; 0x1d4c <GraphicsDrawLine+0xc8>
    1d70:	80 e0       	ldi	r24, 0x00	; 0
    1d72:	01 c0       	rjmp	.+2      	; 0x1d76 <GraphicsDrawLine+0xf2>
    1d74:	82 e0       	ldi	r24, 0x02	; 2
    1d76:	29 96       	adiw	r28, 0x09	; 9
    1d78:	0f b6       	in	r0, 0x3f	; 63
    1d7a:	f8 94       	cli
    1d7c:	de bf       	out	0x3e, r29	; 62
    1d7e:	0f be       	out	0x3f, r0	; 63
    1d80:	cd bf       	out	0x3d, r28	; 61
    1d82:	df 91       	pop	r29
    1d84:	cf 91       	pop	r28
    1d86:	1f 91       	pop	r17
    1d88:	0f 91       	pop	r16
    1d8a:	ff 90       	pop	r15
    1d8c:	ef 90       	pop	r14
    1d8e:	df 90       	pop	r13
    1d90:	cf 90       	pop	r12
    1d92:	bf 90       	pop	r11
    1d94:	af 90       	pop	r10
    1d96:	9f 90       	pop	r9
    1d98:	08 95       	ret

00001d9a <GraphicsDrawSimpleLine>:
    1d9a:	af 92       	push	r10
    1d9c:	bf 92       	push	r11
    1d9e:	cf 92       	push	r12
    1da0:	df 92       	push	r13
    1da2:	ef 92       	push	r14
    1da4:	ff 92       	push	r15
    1da6:	0f 93       	push	r16
    1da8:	1f 93       	push	r17
    1daa:	cf 93       	push	r28
    1dac:	df 93       	push	r29
    1dae:	6c 01       	movw	r12, r24
    1db0:	5a 01       	movw	r10, r20
    1db2:	c2 2f       	mov	r28, r18
    1db4:	e6 2e       	mov	r14, r22
    1db6:	f1 2c       	mov	r15, r1
    1db8:	b7 01       	movw	r22, r14
    1dba:	80 e1       	ldi	r24, 0x10	; 16
    1dbc:	92 e0       	ldi	r25, 0x02	; 2
    1dbe:	0e 94 5b 10 	call	0x20b6	; 0x20b6 <LCDWriteReg>
    1dc2:	b5 01       	movw	r22, r10
    1dc4:	82 e1       	ldi	r24, 0x12	; 18
    1dc6:	92 e0       	ldi	r25, 0x02	; 2
    1dc8:	0e 94 5b 10 	call	0x20b6	; 0x20b6 <LCDWriteReg>
    1dcc:	d0 e0       	ldi	r29, 0x00	; 0
    1dce:	be 01       	movw	r22, r28
    1dd0:	61 50       	subi	r22, 0x01	; 1
    1dd2:	71 09       	sbc	r23, r1
    1dd4:	81 e1       	ldi	r24, 0x11	; 17
    1dd6:	92 e0       	ldi	r25, 0x02	; 2
    1dd8:	0e 94 5b 10 	call	0x20b6	; 0x20b6 <LCDWriteReg>
    1ddc:	b8 01       	movw	r22, r16
    1dde:	61 50       	subi	r22, 0x01	; 1
    1de0:	71 09       	sbc	r23, r1
    1de2:	83 e1       	ldi	r24, 0x13	; 19
    1de4:	92 e0       	ldi	r25, 0x02	; 2
    1de6:	0e 94 5b 10 	call	0x20b6	; 0x20b6 <LCDWriteReg>
    1dea:	b7 01       	movw	r22, r14
    1dec:	80 e0       	ldi	r24, 0x00	; 0
    1dee:	92 e0       	ldi	r25, 0x02	; 2
    1df0:	0e 94 5b 10 	call	0x20b6	; 0x20b6 <LCDWriteReg>
    1df4:	b8 01       	movw	r22, r16
    1df6:	81 e0       	ldi	r24, 0x01	; 1
    1df8:	92 e0       	ldi	r25, 0x02	; 2
    1dfa:	0e 94 5b 10 	call	0x20b6	; 0x20b6 <LCDWriteReg>
    1dfe:	c1 98       	cbi	0x18, 1	; 24
    1e00:	82 e0       	ldi	r24, 0x02	; 2
    1e02:	92 e0       	ldi	r25, 0x02	; 2
    1e04:	0e 94 4d 10 	call	0x209a	; 0x209a <LCDWriteIndex>
    1e08:	c2 98       	cbi	0x18, 2	; 24
    1e0a:	00 e0       	ldi	r16, 0x00	; 0
    1e0c:	10 e0       	ldi	r17, 0x00	; 0
    1e0e:	ce 19       	sub	r28, r14
    1e10:	df 09       	sbc	r29, r15
    1e12:	0c 17       	cp	r16, r28
    1e14:	1d 07       	cpc	r17, r29
    1e16:	30 f4       	brcc	.+12     	; 0x1e24 <GraphicsDrawSimpleLine+0x8a>
    1e18:	c6 01       	movw	r24, r12
    1e1a:	0e 94 7c 10 	call	0x20f8	; 0x20f8 <LCDWriteData>
    1e1e:	0f 5f       	subi	r16, 0xFF	; 255
    1e20:	1f 4f       	sbci	r17, 0xFF	; 255
    1e22:	f7 cf       	rjmp	.-18     	; 0x1e12 <GraphicsDrawSimpleLine+0x78>
    1e24:	c2 9a       	sbi	0x18, 2	; 24
    1e26:	df 91       	pop	r29
    1e28:	cf 91       	pop	r28
    1e2a:	1f 91       	pop	r17
    1e2c:	0f 91       	pop	r16
    1e2e:	ff 90       	pop	r15
    1e30:	ef 90       	pop	r14
    1e32:	df 90       	pop	r13
    1e34:	cf 90       	pop	r12
    1e36:	bf 90       	pop	r11
    1e38:	af 90       	pop	r10
    1e3a:	08 95       	ret

00001e3c <GraphicsDisplayImage>:
    1e3c:	8f 92       	push	r8
    1e3e:	9f 92       	push	r9
    1e40:	af 92       	push	r10
    1e42:	bf 92       	push	r11
    1e44:	cf 92       	push	r12
    1e46:	df 92       	push	r13
    1e48:	ef 92       	push	r14
    1e4a:	ff 92       	push	r15
    1e4c:	0f 93       	push	r16
    1e4e:	1f 93       	push	r17
    1e50:	cf 93       	push	r28
    1e52:	df 93       	push	r29
    1e54:	6c 01       	movw	r12, r24
    1e56:	7a 01       	movw	r14, r20
    1e58:	82 2e       	mov	r8, r18
    1e5a:	c6 2f       	mov	r28, r22
    1e5c:	d0 e0       	ldi	r29, 0x00	; 0
    1e5e:	be 01       	movw	r22, r28
    1e60:	80 e1       	ldi	r24, 0x10	; 16
    1e62:	92 e0       	ldi	r25, 0x02	; 2
    1e64:	0e 94 5b 10 	call	0x20b6	; 0x20b6 <LCDWriteReg>
    1e68:	b7 01       	movw	r22, r14
    1e6a:	82 e1       	ldi	r24, 0x12	; 18
    1e6c:	92 e0       	ldi	r25, 0x02	; 2
    1e6e:	0e 94 5b 10 	call	0x20b6	; 0x20b6 <LCDWriteReg>
    1e72:	a8 2c       	mov	r10, r8
    1e74:	b1 2c       	mov	r11, r1
    1e76:	be 01       	movw	r22, r28
    1e78:	6a 0d       	add	r22, r10
    1e7a:	7b 1d       	adc	r23, r11
    1e7c:	61 50       	subi	r22, 0x01	; 1
    1e7e:	71 09       	sbc	r23, r1
    1e80:	81 e1       	ldi	r24, 0x11	; 17
    1e82:	92 e0       	ldi	r25, 0x02	; 2
    1e84:	0e 94 5b 10 	call	0x20b6	; 0x20b6 <LCDWriteReg>
    1e88:	b8 01       	movw	r22, r16
    1e8a:	61 50       	subi	r22, 0x01	; 1
    1e8c:	71 09       	sbc	r23, r1
    1e8e:	6e 0d       	add	r22, r14
    1e90:	7f 1d       	adc	r23, r15
    1e92:	83 e1       	ldi	r24, 0x13	; 19
    1e94:	92 e0       	ldi	r25, 0x02	; 2
    1e96:	0e 94 5b 10 	call	0x20b6	; 0x20b6 <LCDWriteReg>
    1e9a:	be 01       	movw	r22, r28
    1e9c:	80 e0       	ldi	r24, 0x00	; 0
    1e9e:	92 e0       	ldi	r25, 0x02	; 2
    1ea0:	0e 94 5b 10 	call	0x20b6	; 0x20b6 <LCDWriteReg>
    1ea4:	b7 01       	movw	r22, r14
    1ea6:	81 e0       	ldi	r24, 0x01	; 1
    1ea8:	92 e0       	ldi	r25, 0x02	; 2
    1eaa:	0e 94 5b 10 	call	0x20b6	; 0x20b6 <LCDWriteReg>
    1eae:	c1 98       	cbi	0x18, 1	; 24
    1eb0:	82 e0       	ldi	r24, 0x02	; 2
    1eb2:	92 e0       	ldi	r25, 0x02	; 2
    1eb4:	0e 94 4d 10 	call	0x209a	; 0x209a <LCDWriteIndex>
    1eb8:	aa 0c       	add	r10, r10
    1eba:	bb 1c       	adc	r11, r11
    1ebc:	8f ef       	ldi	r24, 0xFF	; 255
    1ebe:	c8 1a       	sub	r12, r24
    1ec0:	d8 0a       	sbc	r13, r24
    1ec2:	e1 2c       	mov	r14, r1
    1ec4:	f1 2c       	mov	r15, r1
    1ec6:	e0 16       	cp	r14, r16
    1ec8:	f1 06       	cpc	r15, r17
    1eca:	a9 f0       	breq	.+42     	; 0x1ef6 <GraphicsDisplayImage+0xba>
    1ecc:	e6 01       	movw	r28, r12
    1ece:	91 2c       	mov	r9, r1
    1ed0:	98 14       	cp	r9, r8
    1ed2:	59 f0       	breq	.+22     	; 0x1eea <GraphicsDisplayImage+0xae>
    1ed4:	fe 01       	movw	r30, r28
    1ed6:	31 97       	sbiw	r30, 0x01	; 1
    1ed8:	80 81       	ld	r24, Z
    1eda:	28 81       	ld	r18, Y
    1edc:	90 e0       	ldi	r25, 0x00	; 0
    1ede:	92 2b       	or	r25, r18
    1ee0:	0e 94 7c 10 	call	0x20f8	; 0x20f8 <LCDWriteData>
    1ee4:	93 94       	inc	r9
    1ee6:	22 96       	adiw	r28, 0x02	; 2
    1ee8:	f3 cf       	rjmp	.-26     	; 0x1ed0 <GraphicsDisplayImage+0x94>
    1eea:	8f ef       	ldi	r24, 0xFF	; 255
    1eec:	e8 1a       	sub	r14, r24
    1eee:	f8 0a       	sbc	r15, r24
    1ef0:	ca 0c       	add	r12, r10
    1ef2:	db 1c       	adc	r13, r11
    1ef4:	e8 cf       	rjmp	.-48     	; 0x1ec6 <GraphicsDisplayImage+0x8a>
    1ef6:	c2 9a       	sbi	0x18, 2	; 24
    1ef8:	df 91       	pop	r29
    1efa:	cf 91       	pop	r28
    1efc:	1f 91       	pop	r17
    1efe:	0f 91       	pop	r16
    1f00:	ff 90       	pop	r15
    1f02:	ef 90       	pop	r14
    1f04:	df 90       	pop	r13
    1f06:	cf 90       	pop	r12
    1f08:	bf 90       	pop	r11
    1f0a:	af 90       	pop	r10
    1f0c:	9f 90       	pop	r9
    1f0e:	8f 90       	pop	r8
    1f10:	08 95       	ret

00001f12 <QuestionDisplay>:
    1f12:	9f 92       	push	r9
    1f14:	af 92       	push	r10
    1f16:	bf 92       	push	r11
    1f18:	cf 92       	push	r12
    1f1a:	df 92       	push	r13
    1f1c:	ef 92       	push	r14
    1f1e:	ff 92       	push	r15
    1f20:	0f 93       	push	r16
    1f22:	1f 93       	push	r17
    1f24:	cf 93       	push	r28
    1f26:	df 93       	push	r29
    1f28:	ec 01       	movw	r28, r24
    1f2a:	96 2e       	mov	r9, r22
    1f2c:	d4 2e       	mov	r13, r20
    1f2e:	01 e0       	ldi	r16, 0x01	; 1
    1f30:	11 e0       	ldi	r17, 0x01	; 1
    1f32:	d8 01       	movw	r26, r16
    1f34:	8d 91       	ld	r24, X+
    1f36:	9c 91       	ld	r25, X
    1f38:	0e 94 5b 0b 	call	0x16b6	; 0x16b6 <ButtonDestroy>
    1f3c:	f8 01       	movw	r30, r16
    1f3e:	81 93       	st	Z+, r24
    1f40:	91 93       	st	Z+, r25
    1f42:	8f 01       	movw	r16, r30
    1f44:	f1 e0       	ldi	r31, 0x01	; 1
    1f46:	05 31       	cpi	r16, 0x15	; 21
    1f48:	1f 07       	cpc	r17, r31
    1f4a:	99 f7       	brne	.-26     	; 0x1f32 <QuestionDisplay+0x20>
    1f4c:	80 e3       	ldi	r24, 0x30	; 48
    1f4e:	94 e8       	ldi	r25, 0x84	; 132
    1f50:	0e 94 2a 0c 	call	0x1854	; 0x1854 <GraphicsClearScreen>
    1f54:	80 e3       	ldi	r24, 0x30	; 48
    1f56:	94 e8       	ldi	r25, 0x84	; 132
    1f58:	0e 94 2a 0c 	call	0x1854	; 0x1854 <GraphicsClearScreen>
    1f5c:	fe 01       	movw	r30, r28
    1f5e:	01 90       	ld	r0, Z+
    1f60:	00 20       	and	r0, r0
    1f62:	e9 f7       	brne	.-6      	; 0x1f5e <QuestionDisplay+0x4c>
    1f64:	31 97       	sbiw	r30, 0x01	; 1
    1f66:	ec 1b       	sub	r30, r28
    1f68:	fd 0b       	sbc	r31, r29
    1f6a:	83 e0       	ldi	r24, 0x03	; 3
    1f6c:	ee 0f       	add	r30, r30
    1f6e:	ff 1f       	adc	r31, r31
    1f70:	8a 95       	dec	r24
    1f72:	e1 f7       	brne	.-8      	; 0x1f6c <QuestionDisplay+0x5a>
    1f74:	f6 95       	lsr	r31
    1f76:	e7 95       	ror	r30
    1f78:	28 e7       	ldi	r18, 0x78	; 120
    1f7a:	30 e0       	ldi	r19, 0x00	; 0
    1f7c:	2e 1b       	sub	r18, r30
    1f7e:	3f 0b       	sbc	r19, r31
    1f80:	00 e5       	ldi	r16, 0x50	; 80
    1f82:	10 e0       	ldi	r17, 0x00	; 0
    1f84:	40 e3       	ldi	r20, 0x30	; 48
    1f86:	54 e8       	ldi	r21, 0x84	; 132
    1f88:	60 e0       	ldi	r22, 0x00	; 0
    1f8a:	70 e0       	ldi	r23, 0x00	; 0
    1f8c:	ce 01       	movw	r24, r28
    1f8e:	0e 94 f6 0b 	call	0x17ec	; 0x17ec <FontDisplayString>
    1f92:	28 e2       	ldi	r18, 0x28	; 40
    1f94:	a2 2e       	mov	r10, r18
    1f96:	b1 2c       	mov	r11, r1
    1f98:	3c e3       	ldi	r19, 0x3C	; 60
    1f9a:	c3 2e       	mov	r12, r19
    1f9c:	40 ea       	ldi	r20, 0xA0	; 160
    1f9e:	e4 2e       	mov	r14, r20
    1fa0:	f1 2c       	mov	r15, r1
    1fa2:	0e e1       	ldi	r16, 0x1E	; 30
    1fa4:	20 ee       	ldi	r18, 0xE0	; 224
    1fa6:	37 e0       	ldi	r19, 0x07	; 7
    1fa8:	4f ef       	ldi	r20, 0xFF	; 255
    1faa:	5f ef       	ldi	r21, 0xFF	; 255
    1fac:	69 2d       	mov	r22, r9
    1fae:	88 ee       	ldi	r24, 0xE8	; 232
    1fb0:	90 e0       	ldi	r25, 0x00	; 0
    1fb2:	0e 94 1e 0b 	call	0x163c	; 0x163c <ButtonCreate>
    1fb6:	90 93 12 01 	sts	0x0112, r25	; 0x800112 <buttonArray+0x11>
    1fba:	80 93 11 01 	sts	0x0111, r24	; 0x800111 <buttonArray+0x10>
    1fbe:	dc 01       	movw	r26, r24
    1fc0:	1d 96       	adiw	r26, 0x0d	; 13
    1fc2:	ed 91       	ld	r30, X+
    1fc4:	fc 91       	ld	r31, X
    1fc6:	1e 97       	sbiw	r26, 0x0e	; 14
    1fc8:	09 95       	icall
    1fca:	06 e9       	ldi	r16, 0x96	; 150
    1fcc:	20 e0       	ldi	r18, 0x00	; 0
    1fce:	38 ef       	ldi	r19, 0xF8	; 248
    1fd0:	4f ef       	ldi	r20, 0xFF	; 255
    1fd2:	5f ef       	ldi	r21, 0xFF	; 255
    1fd4:	6d 2d       	mov	r22, r13
    1fd6:	8c ee       	ldi	r24, 0xEC	; 236
    1fd8:	90 e0       	ldi	r25, 0x00	; 0
    1fda:	0e 94 1e 0b 	call	0x163c	; 0x163c <ButtonCreate>
    1fde:	90 93 14 01 	sts	0x0114, r25	; 0x800114 <buttonArray+0x13>
    1fe2:	80 93 13 01 	sts	0x0113, r24	; 0x800113 <buttonArray+0x12>
    1fe6:	dc 01       	movw	r26, r24
    1fe8:	1d 96       	adiw	r26, 0x0d	; 13
    1fea:	ed 91       	ld	r30, X+
    1fec:	fc 91       	ld	r31, X
    1fee:	1e 97       	sbiw	r26, 0x0e	; 14
    1ff0:	df 91       	pop	r29
    1ff2:	cf 91       	pop	r28
    1ff4:	1f 91       	pop	r17
    1ff6:	0f 91       	pop	r16
    1ff8:	ff 90       	pop	r15
    1ffa:	ef 90       	pop	r14
    1ffc:	df 90       	pop	r13
    1ffe:	cf 90       	pop	r12
    2000:	bf 90       	pop	r11
    2002:	af 90       	pop	r10
    2004:	9f 90       	pop	r9
    2006:	09 94       	ijmp

00002008 <AccelerometerInit>:
    2008:	0e 94 7e 13 	call	0x26fc	; 0x26fc <I2CStart>
    200c:	8a e3       	ldi	r24, 0x3A	; 58
    200e:	0e 94 84 13 	call	0x2708	; 0x2708 <I2CWriteByte>
    2012:	80 e2       	ldi	r24, 0x20	; 32
    2014:	0e 94 84 13 	call	0x2708	; 0x2708 <I2CWriteByte>
    2018:	87 ec       	ldi	r24, 0xC7	; 199
    201a:	0e 94 84 13 	call	0x2708	; 0x2708 <I2CWriteByte>
    201e:	0c 94 99 13 	jmp	0x2732	; 0x2732 <I2CStop>

00002022 <AccelerometerGetAngle>:
    2022:	1f 93       	push	r17
    2024:	cf 93       	push	r28
    2026:	df 93       	push	r29
    2028:	1f 92       	push	r1
    202a:	cd b7       	in	r28, 0x3d	; 61
    202c:	de b7       	in	r29, 0x3e	; 62
    202e:	18 2f       	mov	r17, r24
    2030:	0e 94 7e 13 	call	0x26fc	; 0x26fc <I2CStart>
    2034:	8a e3       	ldi	r24, 0x3A	; 58
    2036:	0e 94 84 13 	call	0x2708	; 0x2708 <I2CWriteByte>
    203a:	81 2f       	mov	r24, r17
    203c:	0e 94 84 13 	call	0x2708	; 0x2708 <I2CWriteByte>
    2040:	0e 94 7e 13 	call	0x26fc	; 0x26fc <I2CStart>
    2044:	8b e3       	ldi	r24, 0x3B	; 59
    2046:	0e 94 84 13 	call	0x2708	; 0x2708 <I2CWriteByte>
    204a:	0e 94 92 13 	call	0x2724	; 0x2724 <I2CReadLastByte>
    204e:	89 83       	std	Y+1, r24	; 0x01
    2050:	0e 94 99 13 	call	0x2732	; 0x2732 <I2CStop>
    2054:	89 81       	ldd	r24, Y+1	; 0x01
    2056:	0f 90       	pop	r0
    2058:	df 91       	pop	r29
    205a:	cf 91       	pop	r28
    205c:	1f 91       	pop	r17
    205e:	08 95       	ret

00002060 <AccelerometerGetDirection>:
    2060:	89 e2       	ldi	r24, 0x29	; 41
    2062:	0e 94 11 10 	call	0x2022	; 0x2022 <AccelerometerGetAngle>
    2066:	86 3f       	cpi	r24, 0xF6	; 246
    2068:	5c f0       	brlt	.+22     	; 0x2080 <AccelerometerGetDirection+0x20>
    206a:	8b 30       	cpi	r24, 0x0B	; 11
    206c:	5c f4       	brge	.+22     	; 0x2084 <AccelerometerGetDirection+0x24>
    206e:	8b e2       	ldi	r24, 0x2B	; 43
    2070:	0e 94 11 10 	call	0x2022	; 0x2022 <AccelerometerGetAngle>
    2074:	81 3f       	cpi	r24, 0xF1	; 241
    2076:	44 f0       	brlt	.+16     	; 0x2088 <AccelerometerGetDirection+0x28>
    2078:	86 30       	cpi	r24, 0x06	; 6
    207a:	44 f4       	brge	.+16     	; 0x208c <AccelerometerGetDirection+0x2c>
    207c:	80 e0       	ldi	r24, 0x00	; 0
    207e:	08 95       	ret
    2080:	83 e0       	ldi	r24, 0x03	; 3
    2082:	08 95       	ret
    2084:	84 e0       	ldi	r24, 0x04	; 4
    2086:	08 95       	ret
    2088:	81 e0       	ldi	r24, 0x01	; 1
    208a:	08 95       	ret
    208c:	82 e0       	ldi	r24, 0x02	; 2
    208e:	08 95       	ret

00002090 <LCDPWMInit>:
    2090:	83 b7       	in	r24, 0x33	; 51
    2092:	89 66       	ori	r24, 0x69	; 105
    2094:	83 bf       	out	0x33, r24	; 51
    2096:	1c be       	out	0x3c, r1	; 60
    2098:	08 95       	ret

0000209a <LCDWriteIndex>:
    209a:	cf 93       	push	r28
    209c:	c8 2f       	mov	r28, r24
    209e:	c2 98       	cbi	0x18, 2	; 24
    20a0:	c1 98       	cbi	0x18, 1	; 24
    20a2:	89 2f       	mov	r24, r25
    20a4:	0e 94 a3 13 	call	0x2746	; 0x2746 <SPICommunication>
    20a8:	8c 2f       	mov	r24, r28
    20aa:	0e 94 a3 13 	call	0x2746	; 0x2746 <SPICommunication>
    20ae:	c1 9a       	sbi	0x18, 1	; 24
    20b0:	c2 9a       	sbi	0x18, 2	; 24
    20b2:	cf 91       	pop	r28
    20b4:	08 95       	ret

000020b6 <LCDWriteReg>:
    20b6:	1f 93       	push	r17
    20b8:	cf 93       	push	r28
    20ba:	df 93       	push	r29
    20bc:	00 d0       	rcall	.+0      	; 0x20be <LCDWriteReg+0x8>
    20be:	cd b7       	in	r28, 0x3d	; 61
    20c0:	de b7       	in	r29, 0x3e	; 62
    20c2:	18 2f       	mov	r17, r24
    20c4:	c2 98       	cbi	0x18, 2	; 24
    20c6:	c1 98       	cbi	0x18, 1	; 24
    20c8:	89 2f       	mov	r24, r25
    20ca:	6a 83       	std	Y+2, r22	; 0x02
    20cc:	79 83       	std	Y+1, r23	; 0x01
    20ce:	0e 94 a3 13 	call	0x2746	; 0x2746 <SPICommunication>
    20d2:	81 2f       	mov	r24, r17
    20d4:	0e 94 a3 13 	call	0x2746	; 0x2746 <SPICommunication>
    20d8:	c1 9a       	sbi	0x18, 1	; 24
    20da:	79 81       	ldd	r23, Y+1	; 0x01
    20dc:	87 2f       	mov	r24, r23
    20de:	0e 94 a3 13 	call	0x2746	; 0x2746 <SPICommunication>
    20e2:	6a 81       	ldd	r22, Y+2	; 0x02
    20e4:	86 2f       	mov	r24, r22
    20e6:	0e 94 a3 13 	call	0x2746	; 0x2746 <SPICommunication>
    20ea:	c2 9a       	sbi	0x18, 2	; 24
    20ec:	0f 90       	pop	r0
    20ee:	0f 90       	pop	r0
    20f0:	df 91       	pop	r29
    20f2:	cf 91       	pop	r28
    20f4:	1f 91       	pop	r17
    20f6:	08 95       	ret

000020f8 <LCDWriteData>:
    20f8:	cf 93       	push	r28
    20fa:	c8 2f       	mov	r28, r24
    20fc:	89 2f       	mov	r24, r25
    20fe:	0e 94 a3 13 	call	0x2746	; 0x2746 <SPICommunication>
    2102:	8c 2f       	mov	r24, r28
    2104:	cf 91       	pop	r28
    2106:	0c 94 a3 13 	jmp	0x2746	; 0x2746 <SPICommunication>

0000210a <LCDInit>:
    210a:	0e 94 48 10 	call	0x2090	; 0x2090 <LCDPWMInit>
    210e:	c0 98       	cbi	0x18, 0	; 24
    2110:	85 e3       	ldi	r24, 0x35	; 53
    2112:	8a 95       	dec	r24
    2114:	f1 f7       	brne	.-4      	; 0x2112 <LCDInit+0x8>
    2116:	00 00       	nop
    2118:	c0 9a       	sbi	0x18, 0	; 24
    211a:	95 e3       	ldi	r25, 0x35	; 53
    211c:	9a 95       	dec	r25
    211e:	f1 f7       	brne	.-4      	; 0x211c <LCDInit+0x12>
    2120:	00 00       	nop
    2122:	61 e0       	ldi	r22, 0x01	; 1
    2124:	70 e0       	ldi	r23, 0x00	; 0
    2126:	80 e0       	ldi	r24, 0x00	; 0
    2128:	90 e0       	ldi	r25, 0x00	; 0
    212a:	0e 94 5b 10 	call	0x20b6	; 0x20b6 <LCDWriteReg>
    212e:	85 e3       	ldi	r24, 0x35	; 53
    2130:	8a 95       	dec	r24
    2132:	f1 f7       	brne	.-4      	; 0x2130 <LCDInit+0x26>
    2134:	00 00       	nop
    2136:	60 e0       	ldi	r22, 0x00	; 0
    2138:	70 e0       	ldi	r23, 0x00	; 0
    213a:	80 e0       	ldi	r24, 0x00	; 0
    213c:	91 e0       	ldi	r25, 0x01	; 1
    213e:	0e 94 5b 10 	call	0x20b6	; 0x20b6 <LCDWriteReg>
    2142:	60 e0       	ldi	r22, 0x00	; 0
    2144:	70 e0       	ldi	r23, 0x00	; 0
    2146:	81 e0       	ldi	r24, 0x01	; 1
    2148:	91 e0       	ldi	r25, 0x01	; 1
    214a:	0e 94 5b 10 	call	0x20b6	; 0x20b6 <LCDWriteReg>
    214e:	60 e1       	ldi	r22, 0x10	; 16
    2150:	71 e3       	ldi	r23, 0x31	; 49
    2152:	82 e0       	ldi	r24, 0x02	; 2
    2154:	91 e0       	ldi	r25, 0x01	; 1
    2156:	0e 94 5b 10 	call	0x20b6	; 0x20b6 <LCDWriteReg>
    215a:	60 e0       	ldi	r22, 0x00	; 0
    215c:	72 ee       	ldi	r23, 0xE2	; 226
    215e:	83 e0       	ldi	r24, 0x03	; 3
    2160:	91 e0       	ldi	r25, 0x01	; 1
    2162:	0e 94 5b 10 	call	0x20b6	; 0x20b6 <LCDWriteReg>
    2166:	6d e9       	ldi	r22, 0x9D	; 157
    2168:	70 e0       	ldi	r23, 0x00	; 0
    216a:	80 e1       	ldi	r24, 0x10	; 16
    216c:	91 e0       	ldi	r25, 0x01	; 1
    216e:	0e 94 5b 10 	call	0x20b6	; 0x20b6 <LCDWriteReg>
    2172:	62 e2       	ldi	r22, 0x22	; 34
    2174:	70 e0       	ldi	r23, 0x00	; 0
    2176:	81 e1       	ldi	r24, 0x11	; 17
    2178:	91 e0       	ldi	r25, 0x01	; 1
    217a:	0e 94 5b 10 	call	0x20b6	; 0x20b6 <LCDWriteReg>
    217e:	60 e2       	ldi	r22, 0x20	; 32
    2180:	71 e0       	ldi	r23, 0x01	; 1
    2182:	80 e0       	ldi	r24, 0x00	; 0
    2184:	91 e0       	ldi	r25, 0x01	; 1
    2186:	0e 94 5b 10 	call	0x20b6	; 0x20b6 <LCDWriteReg>
    218a:	9a e6       	ldi	r25, 0x6A	; 106
    218c:	9a 95       	dec	r25
    218e:	f1 f7       	brne	.-4      	; 0x218c <LCDInit+0x82>
    2190:	00 c0       	rjmp	.+0      	; 0x2192 <LCDInit+0x88>
    2192:	60 e2       	ldi	r22, 0x20	; 32
    2194:	71 e3       	ldi	r23, 0x31	; 49
    2196:	80 e0       	ldi	r24, 0x00	; 0
    2198:	91 e0       	ldi	r25, 0x01	; 1
    219a:	0e 94 5b 10 	call	0x20b6	; 0x20b6 <LCDWriteReg>
    219e:	8f e3       	ldi	r24, 0x3F	; 63
    21a0:	91 e0       	ldi	r25, 0x01	; 1
    21a2:	01 97       	sbiw	r24, 0x01	; 1
    21a4:	f1 f7       	brne	.-4      	; 0x21a2 <LCDInit+0x98>
    21a6:	00 c0       	rjmp	.+0      	; 0x21a8 <LCDInit+0x9e>
    21a8:	00 00       	nop
    21aa:	60 e0       	ldi	r22, 0x00	; 0
    21ac:	71 e0       	ldi	r23, 0x01	; 1
    21ae:	81 e0       	ldi	r24, 0x01	; 1
    21b0:	90 e0       	ldi	r25, 0x00	; 0
    21b2:	0e 94 5b 10 	call	0x20b6	; 0x20b6 <LCDWriteReg>
    21b6:	60 e0       	ldi	r22, 0x00	; 0
    21b8:	70 e0       	ldi	r23, 0x00	; 0
    21ba:	82 e0       	ldi	r24, 0x02	; 2
    21bc:	90 e0       	ldi	r25, 0x00	; 0
    21be:	0e 94 5b 10 	call	0x20b6	; 0x20b6 <LCDWriteReg>
    21c2:	60 e3       	ldi	r22, 0x30	; 48
    21c4:	72 e1       	ldi	r23, 0x12	; 18
    21c6:	83 e0       	ldi	r24, 0x03	; 3
    21c8:	90 e0       	ldi	r25, 0x00	; 0
    21ca:	0e 94 5b 10 	call	0x20b6	; 0x20b6 <LCDWriteReg>
    21ce:	60 e0       	ldi	r22, 0x00	; 0
    21d0:	70 e0       	ldi	r23, 0x00	; 0
    21d2:	86 e0       	ldi	r24, 0x06	; 6
    21d4:	90 e0       	ldi	r25, 0x00	; 0
    21d6:	0e 94 5b 10 	call	0x20b6	; 0x20b6 <LCDWriteReg>
    21da:	61 e0       	ldi	r22, 0x01	; 1
    21dc:	71 e0       	ldi	r23, 0x01	; 1
    21de:	87 e0       	ldi	r24, 0x07	; 7
    21e0:	90 e0       	ldi	r25, 0x00	; 0
    21e2:	0e 94 5b 10 	call	0x20b6	; 0x20b6 <LCDWriteReg>
    21e6:	68 e0       	ldi	r22, 0x08	; 8
    21e8:	78 e0       	ldi	r23, 0x08	; 8
    21ea:	88 e0       	ldi	r24, 0x08	; 8
    21ec:	90 e0       	ldi	r25, 0x00	; 0
    21ee:	0e 94 5b 10 	call	0x20b6	; 0x20b6 <LCDWriteReg>
    21f2:	60 e0       	ldi	r22, 0x00	; 0
    21f4:	70 e0       	ldi	r23, 0x00	; 0
    21f6:	89 e0       	ldi	r24, 0x09	; 9
    21f8:	90 e0       	ldi	r25, 0x00	; 0
    21fa:	0e 94 5b 10 	call	0x20b6	; 0x20b6 <LCDWriteReg>
    21fe:	60 e0       	ldi	r22, 0x00	; 0
    2200:	70 e0       	ldi	r23, 0x00	; 0
    2202:	8b e0       	ldi	r24, 0x0B	; 11
    2204:	90 e0       	ldi	r25, 0x00	; 0
    2206:	0e 94 5b 10 	call	0x20b6	; 0x20b6 <LCDWriteReg>
    220a:	60 e0       	ldi	r22, 0x00	; 0
    220c:	70 e0       	ldi	r23, 0x00	; 0
    220e:	8c e0       	ldi	r24, 0x0C	; 12
    2210:	90 e0       	ldi	r25, 0x00	; 0
    2212:	0e 94 5b 10 	call	0x20b6	; 0x20b6 <LCDWriteReg>
    2216:	68 e1       	ldi	r22, 0x18	; 24
    2218:	70 e0       	ldi	r23, 0x00	; 0
    221a:	8d e0       	ldi	r24, 0x0D	; 13
    221c:	90 e0       	ldi	r25, 0x00	; 0
    221e:	0e 94 5b 10 	call	0x20b6	; 0x20b6 <LCDWriteReg>
    2222:	60 e0       	ldi	r22, 0x00	; 0
    2224:	70 e0       	ldi	r23, 0x00	; 0
    2226:	82 e1       	ldi	r24, 0x12	; 18
    2228:	90 e0       	ldi	r25, 0x00	; 0
    222a:	0e 94 5b 10 	call	0x20b6	; 0x20b6 <LCDWriteReg>
    222e:	60 e0       	ldi	r22, 0x00	; 0
    2230:	70 e0       	ldi	r23, 0x00	; 0
    2232:	83 e1       	ldi	r24, 0x13	; 19
    2234:	90 e0       	ldi	r25, 0x00	; 0
    2236:	0e 94 5b 10 	call	0x20b6	; 0x20b6 <LCDWriteReg>
    223a:	60 e0       	ldi	r22, 0x00	; 0
    223c:	70 e0       	ldi	r23, 0x00	; 0
    223e:	88 e1       	ldi	r24, 0x18	; 24
    2240:	90 e0       	ldi	r25, 0x00	; 0
    2242:	0e 94 5b 10 	call	0x20b6	; 0x20b6 <LCDWriteReg>
    2246:	60 e0       	ldi	r22, 0x00	; 0
    2248:	70 e0       	ldi	r23, 0x00	; 0
    224a:	89 e1       	ldi	r24, 0x19	; 25
    224c:	90 e0       	ldi	r25, 0x00	; 0
    224e:	0e 94 5b 10 	call	0x20b6	; 0x20b6 <LCDWriteReg>
    2252:	60 e0       	ldi	r22, 0x00	; 0
    2254:	70 e0       	ldi	r23, 0x00	; 0
    2256:	83 e0       	ldi	r24, 0x03	; 3
    2258:	92 e0       	ldi	r25, 0x02	; 2
    225a:	0e 94 5b 10 	call	0x20b6	; 0x20b6 <LCDWriteReg>
    225e:	60 e0       	ldi	r22, 0x00	; 0
    2260:	70 e0       	ldi	r23, 0x00	; 0
    2262:	84 e0       	ldi	r24, 0x04	; 4
    2264:	92 e0       	ldi	r25, 0x02	; 2
    2266:	0e 94 5b 10 	call	0x20b6	; 0x20b6 <LCDWriteReg>
    226a:	60 e0       	ldi	r22, 0x00	; 0
    226c:	70 e0       	ldi	r23, 0x00	; 0
    226e:	80 e1       	ldi	r24, 0x10	; 16
    2270:	92 e0       	ldi	r25, 0x02	; 2
    2272:	0e 94 5b 10 	call	0x20b6	; 0x20b6 <LCDWriteReg>
    2276:	6f ee       	ldi	r22, 0xEF	; 239
    2278:	70 e0       	ldi	r23, 0x00	; 0
    227a:	81 e1       	ldi	r24, 0x11	; 17
    227c:	92 e0       	ldi	r25, 0x02	; 2
    227e:	0e 94 5b 10 	call	0x20b6	; 0x20b6 <LCDWriteReg>
    2282:	60 e0       	ldi	r22, 0x00	; 0
    2284:	70 e0       	ldi	r23, 0x00	; 0
    2286:	82 e1       	ldi	r24, 0x12	; 18
    2288:	92 e0       	ldi	r25, 0x02	; 2
    228a:	0e 94 5b 10 	call	0x20b6	; 0x20b6 <LCDWriteReg>
    228e:	6f e3       	ldi	r22, 0x3F	; 63
    2290:	71 e0       	ldi	r23, 0x01	; 1
    2292:	83 e1       	ldi	r24, 0x13	; 19
    2294:	92 e0       	ldi	r25, 0x02	; 2
    2296:	0e 94 5b 10 	call	0x20b6	; 0x20b6 <LCDWriteReg>
    229a:	60 e0       	ldi	r22, 0x00	; 0
    229c:	70 e0       	ldi	r23, 0x00	; 0
    229e:	84 e1       	ldi	r24, 0x14	; 20
    22a0:	92 e0       	ldi	r25, 0x02	; 2
    22a2:	0e 94 5b 10 	call	0x20b6	; 0x20b6 <LCDWriteReg>
    22a6:	60 e0       	ldi	r22, 0x00	; 0
    22a8:	70 e0       	ldi	r23, 0x00	; 0
    22aa:	85 e1       	ldi	r24, 0x15	; 21
    22ac:	92 e0       	ldi	r25, 0x02	; 2
    22ae:	0e 94 5b 10 	call	0x20b6	; 0x20b6 <LCDWriteReg>
    22b2:	60 e0       	ldi	r22, 0x00	; 0
    22b4:	70 e0       	ldi	r23, 0x00	; 0
    22b6:	86 e1       	ldi	r24, 0x16	; 22
    22b8:	92 e0       	ldi	r25, 0x02	; 2
    22ba:	0e 94 5b 10 	call	0x20b6	; 0x20b6 <LCDWriteReg>
    22be:	60 e0       	ldi	r22, 0x00	; 0
    22c0:	70 e0       	ldi	r23, 0x00	; 0
    22c2:	87 e1       	ldi	r24, 0x17	; 23
    22c4:	92 e0       	ldi	r25, 0x02	; 2
    22c6:	0e 94 5b 10 	call	0x20b6	; 0x20b6 <LCDWriteReg>
    22ca:	63 e4       	ldi	r22, 0x43	; 67
    22cc:	73 e5       	ldi	r23, 0x53	; 83
    22ce:	80 e0       	ldi	r24, 0x00	; 0
    22d0:	93 e0       	ldi	r25, 0x03	; 3
    22d2:	0e 94 5b 10 	call	0x20b6	; 0x20b6 <LCDWriteReg>
    22d6:	61 e2       	ldi	r22, 0x21	; 33
    22d8:	70 e1       	ldi	r23, 0x10	; 16
    22da:	81 e0       	ldi	r24, 0x01	; 1
    22dc:	93 e0       	ldi	r25, 0x03	; 3
    22de:	0e 94 5b 10 	call	0x20b6	; 0x20b6 <LCDWriteReg>
    22e2:	63 e0       	ldi	r22, 0x03	; 3
    22e4:	70 e0       	ldi	r23, 0x00	; 0
    22e6:	82 e0       	ldi	r24, 0x02	; 2
    22e8:	93 e0       	ldi	r25, 0x03	; 3
    22ea:	0e 94 5b 10 	call	0x20b6	; 0x20b6 <LCDWriteReg>
    22ee:	61 e1       	ldi	r22, 0x11	; 17
    22f0:	70 e0       	ldi	r23, 0x00	; 0
    22f2:	83 e0       	ldi	r24, 0x03	; 3
    22f4:	93 e0       	ldi	r25, 0x03	; 3
    22f6:	0e 94 5b 10 	call	0x20b6	; 0x20b6 <LCDWriteReg>
    22fa:	6a e0       	ldi	r22, 0x0A	; 10
    22fc:	75 e0       	ldi	r23, 0x05	; 5
    22fe:	84 e0       	ldi	r24, 0x04	; 4
    2300:	93 e0       	ldi	r25, 0x03	; 3
    2302:	0e 94 5b 10 	call	0x20b6	; 0x20b6 <LCDWriteReg>
    2306:	62 e4       	ldi	r22, 0x42	; 66
    2308:	73 e4       	ldi	r23, 0x43	; 67
    230a:	85 e0       	ldi	r24, 0x05	; 5
    230c:	93 e0       	ldi	r25, 0x03	; 3
    230e:	0e 94 5b 10 	call	0x20b6	; 0x20b6 <LCDWriteReg>
    2312:	60 e0       	ldi	r22, 0x00	; 0
    2314:	71 e1       	ldi	r23, 0x11	; 17
    2316:	86 e0       	ldi	r24, 0x06	; 6
    2318:	93 e0       	ldi	r25, 0x03	; 3
    231a:	0e 94 5b 10 	call	0x20b6	; 0x20b6 <LCDWriteReg>
    231e:	63 e0       	ldi	r22, 0x03	; 3
    2320:	70 e0       	ldi	r23, 0x00	; 0
    2322:	87 e0       	ldi	r24, 0x07	; 7
    2324:	93 e0       	ldi	r25, 0x03	; 3
    2326:	0e 94 5b 10 	call	0x20b6	; 0x20b6 <LCDWriteReg>
    232a:	61 e0       	ldi	r22, 0x01	; 1
    232c:	72 e1       	ldi	r23, 0x12	; 18
    232e:	88 e0       	ldi	r24, 0x08	; 8
    2330:	93 e0       	ldi	r25, 0x03	; 3
    2332:	0e 94 5b 10 	call	0x20b6	; 0x20b6 <LCDWriteReg>
    2336:	6a e0       	ldi	r22, 0x0A	; 10
    2338:	75 e0       	ldi	r23, 0x05	; 5
    233a:	89 e0       	ldi	r24, 0x09	; 9
    233c:	93 e0       	ldi	r25, 0x03	; 3
    233e:	0e 94 5b 10 	call	0x20b6	; 0x20b6 <LCDWriteReg>
    2342:	67 e2       	ldi	r22, 0x27	; 39
    2344:	70 e4       	ldi	r23, 0x40	; 64
    2346:	80 e0       	ldi	r24, 0x00	; 0
    2348:	94 e0       	ldi	r25, 0x04	; 4
    234a:	0e 94 5b 10 	call	0x20b6	; 0x20b6 <LCDWriteReg>
    234e:	60 e0       	ldi	r22, 0x00	; 0
    2350:	70 e0       	ldi	r23, 0x00	; 0
    2352:	81 e0       	ldi	r24, 0x01	; 1
    2354:	94 e0       	ldi	r25, 0x04	; 4
    2356:	0e 94 5b 10 	call	0x20b6	; 0x20b6 <LCDWriteReg>
    235a:	60 e0       	ldi	r22, 0x00	; 0
    235c:	70 e0       	ldi	r23, 0x00	; 0
    235e:	82 e0       	ldi	r24, 0x02	; 2
    2360:	94 e0       	ldi	r25, 0x04	; 4
    2362:	0e 94 5b 10 	call	0x20b6	; 0x20b6 <LCDWriteReg>
    2366:	6f e3       	ldi	r22, 0x3F	; 63
    2368:	71 e0       	ldi	r23, 0x01	; 1
    236a:	83 e0       	ldi	r24, 0x03	; 3
    236c:	94 e0       	ldi	r25, 0x04	; 4
    236e:	0e 94 5b 10 	call	0x20b6	; 0x20b6 <LCDWriteReg>
    2372:	60 e0       	ldi	r22, 0x00	; 0
    2374:	70 e0       	ldi	r23, 0x00	; 0
    2376:	84 e0       	ldi	r24, 0x04	; 4
    2378:	94 e0       	ldi	r25, 0x04	; 4
    237a:	0e 94 5b 10 	call	0x20b6	; 0x20b6 <LCDWriteReg>
    237e:	60 e0       	ldi	r22, 0x00	; 0
    2380:	70 e0       	ldi	r23, 0x00	; 0
    2382:	80 e0       	ldi	r24, 0x00	; 0
    2384:	92 e0       	ldi	r25, 0x02	; 2
    2386:	0e 94 5b 10 	call	0x20b6	; 0x20b6 <LCDWriteReg>
    238a:	60 e0       	ldi	r22, 0x00	; 0
    238c:	70 e0       	ldi	r23, 0x00	; 0
    238e:	81 e0       	ldi	r24, 0x01	; 1
    2390:	92 e0       	ldi	r25, 0x02	; 2
    2392:	0e 94 5b 10 	call	0x20b6	; 0x20b6 <LCDWriteReg>
    2396:	60 e2       	ldi	r22, 0x20	; 32
    2398:	71 e7       	ldi	r23, 0x71	; 113
    239a:	80 e0       	ldi	r24, 0x00	; 0
    239c:	91 e0       	ldi	r25, 0x01	; 1
    239e:	0e 94 5b 10 	call	0x20b6	; 0x20b6 <LCDWriteReg>
    23a2:	63 e0       	ldi	r22, 0x03	; 3
    23a4:	71 e0       	ldi	r23, 0x01	; 1
    23a6:	87 e0       	ldi	r24, 0x07	; 7
    23a8:	90 e0       	ldi	r25, 0x00	; 0
    23aa:	0e 94 5b 10 	call	0x20b6	; 0x20b6 <LCDWriteReg>
    23ae:	95 e3       	ldi	r25, 0x35	; 53
    23b0:	9a 95       	dec	r25
    23b2:	f1 f7       	brne	.-4      	; 0x23b0 <LCDInit+0x2a6>
    23b4:	00 00       	nop
    23b6:	63 e1       	ldi	r22, 0x13	; 19
    23b8:	71 e0       	ldi	r23, 0x01	; 1
    23ba:	87 e0       	ldi	r24, 0x07	; 7
    23bc:	90 e0       	ldi	r25, 0x00	; 0
    23be:	0e 94 5b 10 	call	0x20b6	; 0x20b6 <LCDWriteReg>
    23c2:	8a e6       	ldi	r24, 0x6A	; 106
    23c4:	8a 95       	dec	r24
    23c6:	f1 f7       	brne	.-4      	; 0x23c4 <LCDInit+0x2ba>
    23c8:	00 c0       	rjmp	.+0      	; 0x23ca <LCDInit+0x2c0>
    23ca:	08 95       	ret

000023cc <__vector_1>:
    23cc:	1f 92       	push	r1
    23ce:	0f 92       	push	r0
    23d0:	0f b6       	in	r0, 0x3f	; 63
    23d2:	0f 92       	push	r0
    23d4:	11 24       	eor	r1, r1
    23d6:	8f 93       	push	r24
    23d8:	81 e0       	ldi	r24, 0x01	; 1
    23da:	80 93 f4 00 	sts	0x00F4, r24	; 0x8000f4 <__data_end>
    23de:	8f 91       	pop	r24
    23e0:	0f 90       	pop	r0
    23e2:	0f be       	out	0x3f, r0	; 63
    23e4:	0f 90       	pop	r0
    23e6:	1f 90       	pop	r1
    23e8:	18 95       	reti

000023ea <TouchInit>:
    23ea:	8c 9a       	sbi	0x11, 4	; 17
    23ec:	94 9a       	sbi	0x12, 4	; 18
    23ee:	85 b7       	in	r24, 0x35	; 53
    23f0:	82 60       	ori	r24, 0x02	; 2
    23f2:	85 bf       	out	0x35, r24	; 53
    23f4:	85 b7       	in	r24, 0x35	; 53
    23f6:	8e 7f       	andi	r24, 0xFE	; 254
    23f8:	85 bf       	out	0x35, r24	; 53
    23fa:	8b b7       	in	r24, 0x3b	; 59
    23fc:	80 64       	ori	r24, 0x40	; 64
    23fe:	8b bf       	out	0x3b, r24	; 59
    2400:	78 94       	sei
    2402:	08 95       	ret

00002404 <TouchGetADC>:
    2404:	cf 93       	push	r28
    2406:	c2 9a       	sbi	0x18, 2	; 24
    2408:	94 98       	cbi	0x12, 4	; 18
    240a:	4a e0       	ldi	r20, 0x0A	; 10
    240c:	4a 95       	dec	r20
    240e:	f1 f7       	brne	.-4      	; 0x240c <TouchGetADC+0x8>
    2410:	00 c0       	rjmp	.+0      	; 0x2412 <TouchGetADC+0xe>
    2412:	0e 94 a3 13 	call	0x2746	; 0x2746 <SPICommunication>
    2416:	5a e0       	ldi	r21, 0x0A	; 10
    2418:	5a 95       	dec	r21
    241a:	f1 f7       	brne	.-4      	; 0x2418 <TouchGetADC+0x14>
    241c:	00 c0       	rjmp	.+0      	; 0x241e <TouchGetADC+0x1a>
    241e:	80 e0       	ldi	r24, 0x00	; 0
    2420:	0e 94 a3 13 	call	0x2746	; 0x2746 <SPICommunication>
    2424:	c8 2f       	mov	r28, r24
    2426:	80 e0       	ldi	r24, 0x00	; 0
    2428:	0e 94 a3 13 	call	0x2746	; 0x2746 <SPICommunication>
    242c:	2c 2f       	mov	r18, r28
    242e:	30 e0       	ldi	r19, 0x00	; 0
    2430:	32 2f       	mov	r19, r18
    2432:	22 27       	eor	r18, r18
    2434:	a9 01       	movw	r20, r18
    2436:	48 0f       	add	r20, r24
    2438:	51 1d       	adc	r21, r1
    243a:	ca 01       	movw	r24, r20
    243c:	94 9a       	sbi	0x12, 4	; 18
    243e:	24 e0       	ldi	r18, 0x04	; 4
    2440:	96 95       	lsr	r25
    2442:	87 95       	ror	r24
    2444:	2a 95       	dec	r18
    2446:	e1 f7       	brne	.-8      	; 0x2440 <TouchGetADC+0x3c>
    2448:	cf 91       	pop	r28
    244a:	08 95       	ret

0000244c <TouchGetADCEx>:
    244c:	bf 92       	push	r11
    244e:	cf 92       	push	r12
    2450:	df 92       	push	r13
    2452:	ef 92       	push	r14
    2454:	ff 92       	push	r15
    2456:	0f 93       	push	r16
    2458:	1f 93       	push	r17
    245a:	cf 93       	push	r28
    245c:	df 93       	push	r29
    245e:	cd b7       	in	r28, 0x3d	; 61
    2460:	de b7       	in	r29, 0x3e	; 62
    2462:	64 97       	sbiw	r28, 0x14	; 20
    2464:	0f b6       	in	r0, 0x3f	; 63
    2466:	f8 94       	cli
    2468:	de bf       	out	0x3e, r29	; 62
    246a:	0f be       	out	0x3f, r0	; 63
    246c:	cd bf       	out	0x3d, r28	; 61
    246e:	b8 2e       	mov	r11, r24
    2470:	8e 01       	movw	r16, r28
    2472:	0f 5f       	subi	r16, 0xFF	; 255
    2474:	1f 4f       	sbci	r17, 0xFF	; 255
    2476:	6e 01       	movw	r12, r28
    2478:	85 e1       	ldi	r24, 0x15	; 21
    247a:	c8 0e       	add	r12, r24
    247c:	d1 1c       	adc	r13, r1
    247e:	78 01       	movw	r14, r16
    2480:	8b 2d       	mov	r24, r11
    2482:	0e 94 02 12 	call	0x2404	; 0x2404 <TouchGetADC>
    2486:	d7 01       	movw	r26, r14
    2488:	8d 93       	st	X+, r24
    248a:	9d 93       	st	X+, r25
    248c:	7d 01       	movw	r14, r26
    248e:	ac 15       	cp	r26, r12
    2490:	bd 05       	cpc	r27, r13
    2492:	b1 f7       	brne	.-20     	; 0x2480 <TouchGetADCEx+0x34>
    2494:	80 e0       	ldi	r24, 0x00	; 0
    2496:	90 e0       	ldi	r25, 0x00	; 0
    2498:	01 96       	adiw	r24, 0x01	; 1
    249a:	f8 01       	movw	r30, r16
    249c:	9c 01       	movw	r18, r24
    249e:	d8 01       	movw	r26, r16
    24a0:	4d 91       	ld	r20, X+
    24a2:	5c 91       	ld	r21, X
    24a4:	11 97       	sbiw	r26, 0x01	; 1
    24a6:	62 81       	ldd	r22, Z+2	; 0x02
    24a8:	73 81       	ldd	r23, Z+3	; 0x03
    24aa:	64 17       	cp	r22, r20
    24ac:	75 07       	cpc	r23, r21
    24ae:	20 f4       	brcc	.+8      	; 0x24b8 <TouchGetADCEx+0x6c>
    24b0:	6d 93       	st	X+, r22
    24b2:	7c 93       	st	X, r23
    24b4:	53 83       	std	Z+3, r21	; 0x03
    24b6:	42 83       	std	Z+2, r20	; 0x02
    24b8:	2f 5f       	subi	r18, 0xFF	; 255
    24ba:	3f 4f       	sbci	r19, 0xFF	; 255
    24bc:	32 96       	adiw	r30, 0x02	; 2
    24be:	2a 30       	cpi	r18, 0x0A	; 10
    24c0:	31 05       	cpc	r19, r1
    24c2:	69 f7       	brne	.-38     	; 0x249e <TouchGetADCEx+0x52>
    24c4:	0e 5f       	subi	r16, 0xFE	; 254
    24c6:	1f 4f       	sbci	r17, 0xFF	; 255
    24c8:	89 30       	cpi	r24, 0x09	; 9
    24ca:	91 05       	cpc	r25, r1
    24cc:	29 f7       	brne	.-54     	; 0x2498 <TouchGetADCEx+0x4c>
    24ce:	2b 85       	ldd	r18, Y+11	; 0x0b
    24d0:	3c 85       	ldd	r19, Y+12	; 0x0c
    24d2:	89 85       	ldd	r24, Y+9	; 0x09
    24d4:	9a 85       	ldd	r25, Y+10	; 0x0a
    24d6:	82 0f       	add	r24, r18
    24d8:	93 1f       	adc	r25, r19
    24da:	96 95       	lsr	r25
    24dc:	87 95       	ror	r24
    24de:	64 96       	adiw	r28, 0x14	; 20
    24e0:	0f b6       	in	r0, 0x3f	; 63
    24e2:	f8 94       	cli
    24e4:	de bf       	out	0x3e, r29	; 62
    24e6:	0f be       	out	0x3f, r0	; 63
    24e8:	cd bf       	out	0x3d, r28	; 61
    24ea:	df 91       	pop	r29
    24ec:	cf 91       	pop	r28
    24ee:	1f 91       	pop	r17
    24f0:	0f 91       	pop	r16
    24f2:	ff 90       	pop	r15
    24f4:	ef 90       	pop	r14
    24f6:	df 90       	pop	r13
    24f8:	cf 90       	pop	r12
    24fa:	bf 90       	pop	r11
    24fc:	08 95       	ret

000024fe <TouchReadADS>:
    24fe:	ef 92       	push	r14
    2500:	ff 92       	push	r15
    2502:	0f 93       	push	r16
    2504:	1f 93       	push	r17
    2506:	cf 93       	push	r28
    2508:	df 93       	push	r29
    250a:	7c 01       	movw	r14, r24
    250c:	8b 01       	movw	r16, r22
    250e:	80 ed       	ldi	r24, 0xD0	; 208
    2510:	0e 94 26 12 	call	0x244c	; 0x244c <TouchGetADCEx>
    2514:	ec 01       	movw	r28, r24
    2516:	80 e9       	ldi	r24, 0x90	; 144
    2518:	0e 94 26 12 	call	0x244c	; 0x244c <TouchGetADCEx>
    251c:	c4 36       	cpi	r28, 0x64	; 100
    251e:	d1 05       	cpc	r29, r1
    2520:	58 f0       	brcs	.+22     	; 0x2538 <TouchReadADS+0x3a>
    2522:	84 36       	cpi	r24, 0x64	; 100
    2524:	91 05       	cpc	r25, r1
    2526:	40 f0       	brcs	.+16     	; 0x2538 <TouchReadADS+0x3a>
    2528:	f7 01       	movw	r30, r14
    252a:	d1 83       	std	Z+1, r29	; 0x01
    252c:	c0 83       	st	Z, r28
    252e:	f8 01       	movw	r30, r16
    2530:	91 83       	std	Z+1, r25	; 0x01
    2532:	80 83       	st	Z, r24
    2534:	80 e0       	ldi	r24, 0x00	; 0
    2536:	01 c0       	rjmp	.+2      	; 0x253a <TouchReadADS+0x3c>
    2538:	81 e0       	ldi	r24, 0x01	; 1
    253a:	df 91       	pop	r29
    253c:	cf 91       	pop	r28
    253e:	1f 91       	pop	r17
    2540:	0f 91       	pop	r16
    2542:	ff 90       	pop	r15
    2544:	ef 90       	pop	r14
    2546:	08 95       	ret

00002548 <TouchReadADS2>:
    2548:	ef 92       	push	r14
    254a:	ff 92       	push	r15
    254c:	0f 93       	push	r16
    254e:	1f 93       	push	r17
    2550:	cf 93       	push	r28
    2552:	df 93       	push	r29
    2554:	cd b7       	in	r28, 0x3d	; 61
    2556:	de b7       	in	r29, 0x3e	; 62
    2558:	28 97       	sbiw	r28, 0x08	; 8
    255a:	0f b6       	in	r0, 0x3f	; 63
    255c:	f8 94       	cli
    255e:	de bf       	out	0x3e, r29	; 62
    2560:	0f be       	out	0x3f, r0	; 63
    2562:	cd bf       	out	0x3d, r28	; 61
    2564:	7c 01       	movw	r14, r24
    2566:	8b 01       	movw	r16, r22
    2568:	be 01       	movw	r22, r28
    256a:	6b 5f       	subi	r22, 0xFB	; 251
    256c:	7f 4f       	sbci	r23, 0xFF	; 255
    256e:	ce 01       	movw	r24, r28
    2570:	07 96       	adiw	r24, 0x07	; 7
    2572:	0e 94 7f 12 	call	0x24fe	; 0x24fe <TouchReadADS>
    2576:	81 11       	cpse	r24, r1
    2578:	4a c0       	rjmp	.+148    	; 0x260e <TouchReadADS2+0xc6>
    257a:	be 01       	movw	r22, r28
    257c:	6f 5f       	subi	r22, 0xFF	; 255
    257e:	7f 4f       	sbci	r23, 0xFF	; 255
    2580:	ce 01       	movw	r24, r28
    2582:	03 96       	adiw	r24, 0x03	; 3
    2584:	0e 94 7f 12 	call	0x24fe	; 0x24fe <TouchReadADS>
    2588:	81 11       	cpse	r24, r1
    258a:	41 c0       	rjmp	.+130    	; 0x260e <TouchReadADS2+0xc6>
    258c:	4b 81       	ldd	r20, Y+3	; 0x03
    258e:	5c 81       	ldd	r21, Y+4	; 0x04
    2590:	6f 81       	ldd	r22, Y+7	; 0x07
    2592:	78 85       	ldd	r23, Y+8	; 0x08
    2594:	64 17       	cp	r22, r20
    2596:	75 07       	cpc	r23, r21
    2598:	28 f0       	brcs	.+10     	; 0x25a4 <TouchReadADS2+0x5c>
    259a:	ca 01       	movw	r24, r20
    259c:	c2 96       	adiw	r24, 0x32	; 50
    259e:	68 17       	cp	r22, r24
    25a0:	79 07       	cpc	r23, r25
    25a2:	40 f0       	brcs	.+16     	; 0x25b4 <TouchReadADS2+0x6c>
    25a4:	46 17       	cp	r20, r22
    25a6:	57 07       	cpc	r21, r23
    25a8:	88 f1       	brcs	.+98     	; 0x260c <TouchReadADS2+0xc4>
    25aa:	cb 01       	movw	r24, r22
    25ac:	c2 96       	adiw	r24, 0x32	; 50
    25ae:	48 17       	cp	r20, r24
    25b0:	59 07       	cpc	r21, r25
    25b2:	60 f5       	brcc	.+88     	; 0x260c <TouchReadADS2+0xc4>
    25b4:	29 81       	ldd	r18, Y+1	; 0x01
    25b6:	3a 81       	ldd	r19, Y+2	; 0x02
    25b8:	8d 81       	ldd	r24, Y+5	; 0x05
    25ba:	9e 81       	ldd	r25, Y+6	; 0x06
    25bc:	82 17       	cp	r24, r18
    25be:	93 07       	cpc	r25, r19
    25c0:	28 f0       	brcs	.+10     	; 0x25cc <TouchReadADS2+0x84>
    25c2:	f9 01       	movw	r30, r18
    25c4:	f2 96       	adiw	r30, 0x32	; 50
    25c6:	8e 17       	cp	r24, r30
    25c8:	9f 07       	cpc	r25, r31
    25ca:	40 f0       	brcs	.+16     	; 0x25dc <TouchReadADS2+0x94>
    25cc:	28 17       	cp	r18, r24
    25ce:	39 07       	cpc	r19, r25
    25d0:	e8 f0       	brcs	.+58     	; 0x260c <TouchReadADS2+0xc4>
    25d2:	fc 01       	movw	r30, r24
    25d4:	f2 96       	adiw	r30, 0x32	; 50
    25d6:	2e 17       	cp	r18, r30
    25d8:	3f 07       	cpc	r19, r31
    25da:	c0 f4       	brcc	.+48     	; 0x260c <TouchReadADS2+0xc4>
    25dc:	46 0f       	add	r20, r22
    25de:	57 1f       	adc	r21, r23
    25e0:	56 95       	lsr	r21
    25e2:	47 95       	ror	r20
    25e4:	60 e0       	ldi	r22, 0x00	; 0
    25e6:	70 e0       	ldi	r23, 0x00	; 0
    25e8:	f7 01       	movw	r30, r14
    25ea:	40 83       	st	Z, r20
    25ec:	51 83       	std	Z+1, r21	; 0x01
    25ee:	62 83       	std	Z+2, r22	; 0x02
    25f0:	73 83       	std	Z+3, r23	; 0x03
    25f2:	82 0f       	add	r24, r18
    25f4:	93 1f       	adc	r25, r19
    25f6:	96 95       	lsr	r25
    25f8:	87 95       	ror	r24
    25fa:	a0 e0       	ldi	r26, 0x00	; 0
    25fc:	b0 e0       	ldi	r27, 0x00	; 0
    25fe:	f8 01       	movw	r30, r16
    2600:	80 83       	st	Z, r24
    2602:	91 83       	std	Z+1, r25	; 0x01
    2604:	a2 83       	std	Z+2, r26	; 0x02
    2606:	b3 83       	std	Z+3, r27	; 0x03
    2608:	80 e0       	ldi	r24, 0x00	; 0
    260a:	01 c0       	rjmp	.+2      	; 0x260e <TouchReadADS2+0xc6>
    260c:	81 e0       	ldi	r24, 0x01	; 1
    260e:	28 96       	adiw	r28, 0x08	; 8
    2610:	0f b6       	in	r0, 0x3f	; 63
    2612:	f8 94       	cli
    2614:	de bf       	out	0x3e, r29	; 62
    2616:	0f be       	out	0x3f, r0	; 63
    2618:	cd bf       	out	0x3d, r28	; 61
    261a:	df 91       	pop	r29
    261c:	cf 91       	pop	r28
    261e:	1f 91       	pop	r17
    2620:	0f 91       	pop	r16
    2622:	ff 90       	pop	r15
    2624:	ef 90       	pop	r14
    2626:	08 95       	ret

00002628 <TouchConvertAdToXy>:
    2628:	cf 92       	push	r12
    262a:	df 92       	push	r13
    262c:	ef 92       	push	r14
    262e:	ff 92       	push	r15
    2630:	cf 93       	push	r28
    2632:	df 93       	push	r29
    2634:	c5 ef       	ldi	r28, 0xF5	; 245
    2636:	d0 e0       	ldi	r29, 0x00	; 0
    2638:	2b 81       	ldd	r18, Y+3	; 0x03
    263a:	3c 81       	ldd	r19, Y+4	; 0x04
    263c:	4d 81       	ldd	r20, Y+5	; 0x05
    263e:	5e 81       	ldd	r21, Y+6	; 0x06
    2640:	a0 ef       	ldi	r26, 0xF0	; 240
    2642:	b0 e0       	ldi	r27, 0x00	; 0
    2644:	0e 94 cf 14 	call	0x299e	; 0x299e <__muluhisi3>
    2648:	60 5c       	subi	r22, 0xC0	; 192
    264a:	70 4b       	sbci	r23, 0xB0	; 176
    264c:	8f 4f       	sbci	r24, 0xFF	; 255
    264e:	9f 4f       	sbci	r25, 0xFF	; 255
    2650:	2c e6       	ldi	r18, 0x6C	; 108
    2652:	c2 2e       	mov	r12, r18
    2654:	27 e0       	ldi	r18, 0x07	; 7
    2656:	d2 2e       	mov	r13, r18
    2658:	e1 2c       	mov	r14, r1
    265a:	f1 2c       	mov	r15, r1
    265c:	a7 01       	movw	r20, r14
    265e:	96 01       	movw	r18, r12
    2660:	0e 94 a7 14 	call	0x294e	; 0x294e <__udivmodsi4>
    2664:	28 83       	st	Y, r18
    2666:	2f 81       	ldd	r18, Y+7	; 0x07
    2668:	38 85       	ldd	r19, Y+8	; 0x08
    266a:	49 85       	ldd	r20, Y+9	; 0x09
    266c:	5a 85       	ldd	r21, Y+10	; 0x0a
    266e:	a0 e4       	ldi	r26, 0x40	; 64
    2670:	b1 e0       	ldi	r27, 0x01	; 1
    2672:	0e 94 cf 14 	call	0x299e	; 0x299e <__muluhisi3>
    2676:	71 54       	subi	r23, 0x41	; 65
    2678:	81 09       	sbc	r24, r1
    267a:	91 09       	sbc	r25, r1
    267c:	a7 01       	movw	r20, r14
    267e:	96 01       	movw	r18, r12
    2680:	0e 94 a7 14 	call	0x294e	; 0x294e <__udivmodsi4>
    2684:	3a 83       	std	Y+2, r19	; 0x02
    2686:	29 83       	std	Y+1, r18	; 0x01
    2688:	df 91       	pop	r29
    268a:	cf 91       	pop	r28
    268c:	ff 90       	pop	r15
    268e:	ef 90       	pop	r14
    2690:	df 90       	pop	r13
    2692:	cf 90       	pop	r12
    2694:	08 95       	ret

00002696 <TouchReadOnce>:
    2696:	cf 93       	push	r28
    2698:	df 93       	push	r29
    269a:	1f 92       	push	r1
    269c:	cd b7       	in	r28, 0x3d	; 61
    269e:	de b7       	in	r29, 0x3e	; 62
    26a0:	6c ef       	ldi	r22, 0xFC	; 252
    26a2:	70 e0       	ldi	r23, 0x00	; 0
    26a4:	88 ef       	ldi	r24, 0xF8	; 248
    26a6:	90 e0       	ldi	r25, 0x00	; 0
    26a8:	0e 94 a4 12 	call	0x2548	; 0x2548 <TouchReadADS2>
    26ac:	81 11       	cpse	r24, r1
    26ae:	06 c0       	rjmp	.+12     	; 0x26bc <TouchReadOnce+0x26>
    26b0:	83 9b       	sbis	0x10, 3	; 16
    26b2:	fe cf       	rjmp	.-4      	; 0x26b0 <TouchReadOnce+0x1a>
    26b4:	89 83       	std	Y+1, r24	; 0x01
    26b6:	0e 94 14 13 	call	0x2628	; 0x2628 <TouchConvertAdToXy>
    26ba:	89 81       	ldd	r24, Y+1	; 0x01
    26bc:	0f 90       	pop	r0
    26be:	df 91       	pop	r29
    26c0:	cf 91       	pop	r28
    26c2:	08 95       	ret

000026c4 <TouchReadContinue>:
    26c4:	cf 93       	push	r28
    26c6:	df 93       	push	r29
    26c8:	1f 92       	push	r1
    26ca:	cd b7       	in	r28, 0x3d	; 61
    26cc:	de b7       	in	r29, 0x3e	; 62
    26ce:	6c ef       	ldi	r22, 0xFC	; 252
    26d0:	70 e0       	ldi	r23, 0x00	; 0
    26d2:	88 ef       	ldi	r24, 0xF8	; 248
    26d4:	90 e0       	ldi	r25, 0x00	; 0
    26d6:	0e 94 a4 12 	call	0x2548	; 0x2548 <TouchReadADS2>
    26da:	81 11       	cpse	r24, r1
    26dc:	04 c0       	rjmp	.+8      	; 0x26e6 <TouchReadContinue+0x22>
    26de:	89 83       	std	Y+1, r24	; 0x01
    26e0:	0e 94 14 13 	call	0x2628	; 0x2628 <TouchConvertAdToXy>
    26e4:	89 81       	ldd	r24, Y+1	; 0x01
    26e6:	0f 90       	pop	r0
    26e8:	df 91       	pop	r29
    26ea:	cf 91       	pop	r28
    26ec:	08 95       	ret

000026ee <I2CInit>:
    26ee:	14 ba       	out	0x14, r1	; 20
    26f0:	83 e0       	ldi	r24, 0x03	; 3
    26f2:	85 bb       	out	0x15, r24	; 21
    26f4:	11 b8       	out	0x01, r1	; 1
    26f6:	8c e0       	ldi	r24, 0x0C	; 12
    26f8:	80 b9       	out	0x00, r24	; 0
    26fa:	08 95       	ret

000026fc <I2CStart>:
    26fc:	84 ea       	ldi	r24, 0xA4	; 164
    26fe:	86 bf       	out	0x36, r24	; 54
    2700:	06 b6       	in	r0, 0x36	; 54
    2702:	07 fe       	sbrs	r0, 7
    2704:	fd cf       	rjmp	.-6      	; 0x2700 <I2CStart+0x4>
    2706:	08 95       	ret

00002708 <I2CWriteByte>:
    2708:	83 b9       	out	0x03, r24	; 3
    270a:	84 e8       	ldi	r24, 0x84	; 132
    270c:	86 bf       	out	0x36, r24	; 54
    270e:	06 b6       	in	r0, 0x36	; 54
    2710:	07 fe       	sbrs	r0, 7
    2712:	fd cf       	rjmp	.-6      	; 0x270e <I2CWriteByte+0x6>
    2714:	08 95       	ret

00002716 <I2CReadByte>:
    2716:	84 ec       	ldi	r24, 0xC4	; 196
    2718:	86 bf       	out	0x36, r24	; 54
    271a:	06 b6       	in	r0, 0x36	; 54
    271c:	07 fe       	sbrs	r0, 7
    271e:	fd cf       	rjmp	.-6      	; 0x271a <I2CReadByte+0x4>
    2720:	83 b1       	in	r24, 0x03	; 3
    2722:	08 95       	ret

00002724 <I2CReadLastByte>:
    2724:	84 e8       	ldi	r24, 0x84	; 132
    2726:	86 bf       	out	0x36, r24	; 54
    2728:	06 b6       	in	r0, 0x36	; 54
    272a:	07 fe       	sbrs	r0, 7
    272c:	fd cf       	rjmp	.-6      	; 0x2728 <I2CReadLastByte+0x4>
    272e:	83 b1       	in	r24, 0x03	; 3
    2730:	08 95       	ret

00002732 <I2CStop>:
    2732:	84 e9       	ldi	r24, 0x94	; 148
    2734:	86 bf       	out	0x36, r24	; 54
    2736:	08 95       	ret

00002738 <SPIInit>:
    2738:	8f ef       	ldi	r24, 0xFF	; 255
    273a:	87 bb       	out	0x17, r24	; 23
    273c:	18 ba       	out	0x18, r1	; 24
    273e:	80 e5       	ldi	r24, 0x50	; 80
    2740:	8d b9       	out	0x0d, r24	; 13
    2742:	1e b8       	out	0x0e, r1	; 14
    2744:	08 95       	ret

00002746 <SPICommunication>:
    2746:	8f b9       	out	0x0f, r24	; 15
    2748:	77 9b       	sbis	0x0e, 7	; 14
    274a:	fe cf       	rjmp	.-4      	; 0x2748 <SPICommunication+0x2>
    274c:	8f b1       	in	r24, 0x0f	; 15
    274e:	08 95       	ret

00002750 <PaintInit>:
    2750:	cf 92       	push	r12
    2752:	df 92       	push	r13
    2754:	ef 92       	push	r14
    2756:	ff 92       	push	r15
    2758:	0f 93       	push	r16
    275a:	1f 93       	push	r17
    275c:	cf 93       	push	r28
    275e:	df 93       	push	r29
    2760:	d8 2f       	mov	r29, r24
    2762:	c9 2f       	mov	r28, r25
    2764:	6b 01       	movw	r12, r22
    2766:	8f ef       	ldi	r24, 0xFF	; 255
    2768:	9f ef       	ldi	r25, 0xFF	; 255
    276a:	0e 94 2a 0c 	call	0x1854	; 0x1854 <GraphicsClearScreen>
    276e:	ed 2e       	mov	r14, r29
    2770:	fc 2e       	mov	r15, r28
    2772:	c0 e0       	ldi	r28, 0x00	; 0
    2774:	0e e1       	ldi	r16, 0x1E	; 30
    2776:	10 e0       	ldi	r17, 0x00	; 0
    2778:	2e e1       	ldi	r18, 0x1E	; 30
    277a:	40 e0       	ldi	r20, 0x00	; 0
    277c:	50 e0       	ldi	r21, 0x00	; 0
    277e:	6c 2f       	mov	r22, r28
    2780:	f7 01       	movw	r30, r14
    2782:	81 91       	ld	r24, Z+
    2784:	91 91       	ld	r25, Z+
    2786:	7f 01       	movw	r14, r30
    2788:	0e 94 77 0c 	call	0x18ee	; 0x18ee <GraphicsClearArea>
    278c:	c2 5e       	subi	r28, 0xE2	; 226
    278e:	c0 3f       	cpi	r28, 0xF0	; 240
    2790:	89 f7       	brne	.-30     	; 0x2774 <PaintInit+0x24>
    2792:	c6 01       	movw	r24, r12
    2794:	df 91       	pop	r29
    2796:	cf 91       	pop	r28
    2798:	1f 91       	pop	r17
    279a:	0f 91       	pop	r16
    279c:	ff 90       	pop	r15
    279e:	ef 90       	pop	r14
    27a0:	df 90       	pop	r13
    27a2:	cf 90       	pop	r12
    27a4:	0c 94 e8 0a 	jmp	0x15d0	; 0x15d0 <ButtonDisplay>

000027a8 <PaintCheckColorChange>:
    27a8:	cf 93       	push	r28
    27aa:	df 93       	push	r29
    27ac:	20 91 f5 00 	lds	r18, 0x00F5	; 0x8000f5 <touchPoint>
    27b0:	24 51       	subi	r18, 0x14	; 20
    27b2:	e0 91 f6 00 	lds	r30, 0x00F6	; 0x8000f6 <touchPoint+0x1>
    27b6:	f0 91 f7 00 	lds	r31, 0x00F7	; 0x8000f7 <touchPoint+0x2>
    27ba:	32 97       	sbiw	r30, 0x02	; 2
    27bc:	ec 01       	movw	r28, r24
    27be:	40 e0       	ldi	r20, 0x00	; 0
    27c0:	50 e0       	ldi	r21, 0x00	; 0
    27c2:	30 e0       	ldi	r19, 0x00	; 0
    27c4:	89 91       	ld	r24, Y+
    27c6:	99 91       	ld	r25, Y+
    27c8:	da 01       	movw	r26, r20
    27ca:	5e 96       	adiw	r26, 0x1e	; 30
    27cc:	86 17       	cp	r24, r22
    27ce:	97 07       	cpc	r25, r23
    27d0:	49 f0       	breq	.+18     	; 0x27e4 <PaintCheckColorChange+0x3c>
    27d2:	24 17       	cp	r18, r20
    27d4:	35 07       	cpc	r19, r21
    27d6:	34 f0       	brlt	.+12     	; 0x27e4 <PaintCheckColorChange+0x3c>
    27d8:	a2 17       	cp	r26, r18
    27da:	b3 07       	cpc	r27, r19
    27dc:	1c f0       	brlt	.+6      	; 0x27e4 <PaintCheckColorChange+0x3c>
    27de:	ef 31       	cpi	r30, 0x1F	; 31
    27e0:	f1 05       	cpc	r31, r1
    27e2:	28 f0       	brcs	.+10     	; 0x27ee <PaintCheckColorChange+0x46>
    27e4:	ad 01       	movw	r20, r26
    27e6:	a0 3f       	cpi	r26, 0xF0	; 240
    27e8:	b1 05       	cpc	r27, r1
    27ea:	61 f7       	brne	.-40     	; 0x27c4 <PaintCheckColorChange+0x1c>
    27ec:	cb 01       	movw	r24, r22
    27ee:	df 91       	pop	r29
    27f0:	cf 91       	pop	r28
    27f2:	08 95       	ret

000027f4 <PaintShow>:
    27f4:	af 92       	push	r10
    27f6:	bf 92       	push	r11
    27f8:	cf 92       	push	r12
    27fa:	ef 92       	push	r14
    27fc:	ff 92       	push	r15
    27fe:	0f 93       	push	r16
    2800:	1f 93       	push	r17
    2802:	cf 93       	push	r28
    2804:	df 93       	push	r29
    2806:	cd b7       	in	r28, 0x3d	; 61
    2808:	de b7       	in	r29, 0x3e	; 62
    280a:	60 97       	sbiw	r28, 0x10	; 16
    280c:	0f b6       	in	r0, 0x3f	; 63
    280e:	f8 94       	cli
    2810:	de bf       	out	0x3e, r29	; 62
    2812:	0f be       	out	0x3f, r0	; 63
    2814:	cd bf       	out	0x3d, r28	; 61
    2816:	80 e1       	ldi	r24, 0x10	; 16
    2818:	ea e6       	ldi	r30, 0x6A	; 106
    281a:	f0 e0       	ldi	r31, 0x00	; 0
    281c:	de 01       	movw	r26, r28
    281e:	11 96       	adiw	r26, 0x01	; 1
    2820:	01 90       	ld	r0, Z+
    2822:	0d 92       	st	X+, r0
    2824:	8a 95       	dec	r24
    2826:	e1 f7       	brne	.-8      	; 0x2820 <PaintShow+0x2c>
    2828:	8e e1       	ldi	r24, 0x1E	; 30
    282a:	a8 2e       	mov	r10, r24
    282c:	b1 2c       	mov	r11, r1
    282e:	98 e2       	ldi	r25, 0x28	; 40
    2830:	c9 2e       	mov	r12, r25
    2832:	2d e1       	ldi	r18, 0x1D	; 29
    2834:	e2 2e       	mov	r14, r18
    2836:	ff 24       	eor	r15, r15
    2838:	f3 94       	inc	r15
    283a:	05 e0       	ldi	r16, 0x05	; 5
    283c:	20 e0       	ldi	r18, 0x00	; 0
    283e:	38 ef       	ldi	r19, 0xF8	; 248
    2840:	40 e0       	ldi	r20, 0x00	; 0
    2842:	50 e0       	ldi	r21, 0x00	; 0
    2844:	66 e0       	ldi	r22, 0x06	; 6
    2846:	8f ee       	ldi	r24, 0xEF	; 239
    2848:	90 e0       	ldi	r25, 0x00	; 0
    284a:	0e 94 1e 0b 	call	0x163c	; 0x163c <ButtonCreate>
    284e:	8c 01       	movw	r16, r24
    2850:	bc 01       	movw	r22, r24
    2852:	ce 01       	movw	r24, r28
    2854:	01 96       	adiw	r24, 0x01	; 1
    2856:	0e 94 a8 13 	call	0x2750	; 0x2750 <PaintInit>
    285a:	e1 2c       	mov	r14, r1
    285c:	f1 2c       	mov	r15, r1
    285e:	c8 01       	movw	r24, r16
    2860:	0e 94 60 0b 	call	0x16c0	; 0x16c0 <ButtonCheck>
    2864:	81 11       	cpse	r24, r1
    2866:	15 c0       	rjmp	.+42     	; 0x2892 <PaintShow+0x9e>
    2868:	b7 01       	movw	r22, r14
    286a:	ce 01       	movw	r24, r28
    286c:	01 96       	adiw	r24, 0x01	; 1
    286e:	0e 94 d4 13 	call	0x27a8	; 0x27a8 <PaintCheckColorChange>
    2872:	7c 01       	movw	r14, r24
    2874:	0e 94 62 13 	call	0x26c4	; 0x26c4 <TouchReadContinue>
    2878:	40 91 f6 00 	lds	r20, 0x00F6	; 0x8000f6 <touchPoint+0x1>
    287c:	50 91 f7 00 	lds	r21, 0x00F7	; 0x8000f7 <touchPoint+0x2>
    2880:	42 50       	subi	r20, 0x02	; 2
    2882:	51 09       	sbc	r21, r1
    2884:	60 91 f5 00 	lds	r22, 0x00F5	; 0x8000f5 <touchPoint>
    2888:	64 51       	subi	r22, 0x14	; 20
    288a:	c7 01       	movw	r24, r14
    288c:	0e 94 e6 0c 	call	0x19cc	; 0x19cc <GraphicsPutPixel>
    2890:	e6 cf       	rjmp	.-52     	; 0x285e <PaintShow+0x6a>
    2892:	c8 01       	movw	r24, r16
    2894:	0e 94 5b 18 	call	0x30b6	; 0x30b6 <free>
    2898:	60 96       	adiw	r28, 0x10	; 16
    289a:	0f b6       	in	r0, 0x3f	; 63
    289c:	f8 94       	cli
    289e:	de bf       	out	0x3e, r29	; 62
    28a0:	0f be       	out	0x3f, r0	; 63
    28a2:	cd bf       	out	0x3d, r28	; 61
    28a4:	df 91       	pop	r29
    28a6:	cf 91       	pop	r28
    28a8:	1f 91       	pop	r17
    28aa:	0f 91       	pop	r16
    28ac:	ff 90       	pop	r15
    28ae:	ef 90       	pop	r14
    28b0:	cf 90       	pop	r12
    28b2:	bf 90       	pop	r11
    28b4:	af 90       	pop	r10
    28b6:	08 95       	ret

000028b8 <main>:
    28b8:	8f e8       	ldi	r24, 0x8F	; 143
    28ba:	91 e0       	ldi	r25, 0x01	; 1
    28bc:	01 97       	sbiw	r24, 0x01	; 1
    28be:	f1 f7       	brne	.-4      	; 0x28bc <main+0x4>
    28c0:	00 c0       	rjmp	.+0      	; 0x28c2 <main+0xa>
    28c2:	00 00       	nop
    28c4:	0e 94 77 13 	call	0x26ee	; 0x26ee <I2CInit>
    28c8:	0e 94 04 10 	call	0x2008	; 0x2008 <AccelerometerInit>
    28cc:	0e 94 f5 11 	call	0x23ea	; 0x23ea <TouchInit>
    28d0:	0e 94 9c 13 	call	0x2738	; 0x2738 <SPIInit>
    28d4:	0e 94 85 10 	call	0x210a	; 0x210a <LCDInit>
    28d8:	0e 94 97 06 	call	0xd2e	; 0xd2e <WelcomeShow>
    28dc:	0e 94 0e 05 	call	0xa1c	; 0xa1c <DesktopShow>
    28e0:	80 91 f4 00 	lds	r24, 0x00F4	; 0x8000f4 <__data_end>
    28e4:	88 23       	and	r24, r24
    28e6:	e1 f3       	breq	.-8      	; 0x28e0 <main+0x28>
    28e8:	0e 94 89 05 	call	0xb12	; 0xb12 <DesktopCheckSelect>
    28ec:	f9 cf       	rjmp	.-14     	; 0x28e0 <main+0x28>

000028ee <__mulsi3>:
    28ee:	db 01       	movw	r26, r22
    28f0:	8f 93       	push	r24
    28f2:	9f 93       	push	r25
    28f4:	0e 94 cf 14 	call	0x299e	; 0x299e <__muluhisi3>
    28f8:	bf 91       	pop	r27
    28fa:	af 91       	pop	r26
    28fc:	a2 9f       	mul	r26, r18
    28fe:	80 0d       	add	r24, r0
    2900:	91 1d       	adc	r25, r1
    2902:	a3 9f       	mul	r26, r19
    2904:	90 0d       	add	r25, r0
    2906:	b2 9f       	mul	r27, r18
    2908:	90 0d       	add	r25, r0
    290a:	11 24       	eor	r1, r1
    290c:	08 95       	ret

0000290e <__udivmodqi4>:
    290e:	99 1b       	sub	r25, r25
    2910:	79 e0       	ldi	r23, 0x09	; 9
    2912:	04 c0       	rjmp	.+8      	; 0x291c <__udivmodqi4_ep>

00002914 <__udivmodqi4_loop>:
    2914:	99 1f       	adc	r25, r25
    2916:	96 17       	cp	r25, r22
    2918:	08 f0       	brcs	.+2      	; 0x291c <__udivmodqi4_ep>
    291a:	96 1b       	sub	r25, r22

0000291c <__udivmodqi4_ep>:
    291c:	88 1f       	adc	r24, r24
    291e:	7a 95       	dec	r23
    2920:	c9 f7       	brne	.-14     	; 0x2914 <__udivmodqi4_loop>
    2922:	80 95       	com	r24
    2924:	08 95       	ret

00002926 <__udivmodhi4>:
    2926:	aa 1b       	sub	r26, r26
    2928:	bb 1b       	sub	r27, r27
    292a:	51 e1       	ldi	r21, 0x11	; 17
    292c:	07 c0       	rjmp	.+14     	; 0x293c <__udivmodhi4_ep>

0000292e <__udivmodhi4_loop>:
    292e:	aa 1f       	adc	r26, r26
    2930:	bb 1f       	adc	r27, r27
    2932:	a6 17       	cp	r26, r22
    2934:	b7 07       	cpc	r27, r23
    2936:	10 f0       	brcs	.+4      	; 0x293c <__udivmodhi4_ep>
    2938:	a6 1b       	sub	r26, r22
    293a:	b7 0b       	sbc	r27, r23

0000293c <__udivmodhi4_ep>:
    293c:	88 1f       	adc	r24, r24
    293e:	99 1f       	adc	r25, r25
    2940:	5a 95       	dec	r21
    2942:	a9 f7       	brne	.-22     	; 0x292e <__udivmodhi4_loop>
    2944:	80 95       	com	r24
    2946:	90 95       	com	r25
    2948:	bc 01       	movw	r22, r24
    294a:	cd 01       	movw	r24, r26
    294c:	08 95       	ret

0000294e <__udivmodsi4>:
    294e:	a1 e2       	ldi	r26, 0x21	; 33
    2950:	1a 2e       	mov	r1, r26
    2952:	aa 1b       	sub	r26, r26
    2954:	bb 1b       	sub	r27, r27
    2956:	fd 01       	movw	r30, r26
    2958:	0d c0       	rjmp	.+26     	; 0x2974 <__udivmodsi4_ep>

0000295a <__udivmodsi4_loop>:
    295a:	aa 1f       	adc	r26, r26
    295c:	bb 1f       	adc	r27, r27
    295e:	ee 1f       	adc	r30, r30
    2960:	ff 1f       	adc	r31, r31
    2962:	a2 17       	cp	r26, r18
    2964:	b3 07       	cpc	r27, r19
    2966:	e4 07       	cpc	r30, r20
    2968:	f5 07       	cpc	r31, r21
    296a:	20 f0       	brcs	.+8      	; 0x2974 <__udivmodsi4_ep>
    296c:	a2 1b       	sub	r26, r18
    296e:	b3 0b       	sbc	r27, r19
    2970:	e4 0b       	sbc	r30, r20
    2972:	f5 0b       	sbc	r31, r21

00002974 <__udivmodsi4_ep>:
    2974:	66 1f       	adc	r22, r22
    2976:	77 1f       	adc	r23, r23
    2978:	88 1f       	adc	r24, r24
    297a:	99 1f       	adc	r25, r25
    297c:	1a 94       	dec	r1
    297e:	69 f7       	brne	.-38     	; 0x295a <__udivmodsi4_loop>
    2980:	60 95       	com	r22
    2982:	70 95       	com	r23
    2984:	80 95       	com	r24
    2986:	90 95       	com	r25
    2988:	9b 01       	movw	r18, r22
    298a:	ac 01       	movw	r20, r24
    298c:	bd 01       	movw	r22, r26
    298e:	cf 01       	movw	r24, r30
    2990:	08 95       	ret

00002992 <__tablejump2__>:
    2992:	ee 0f       	add	r30, r30
    2994:	ff 1f       	adc	r31, r31
    2996:	05 90       	lpm	r0, Z+
    2998:	f4 91       	lpm	r31, Z
    299a:	e0 2d       	mov	r30, r0
    299c:	09 94       	ijmp

0000299e <__muluhisi3>:
    299e:	0e 94 da 14 	call	0x29b4	; 0x29b4 <__umulhisi3>
    29a2:	a5 9f       	mul	r26, r21
    29a4:	90 0d       	add	r25, r0
    29a6:	b4 9f       	mul	r27, r20
    29a8:	90 0d       	add	r25, r0
    29aa:	a4 9f       	mul	r26, r20
    29ac:	80 0d       	add	r24, r0
    29ae:	91 1d       	adc	r25, r1
    29b0:	11 24       	eor	r1, r1
    29b2:	08 95       	ret

000029b4 <__umulhisi3>:
    29b4:	a2 9f       	mul	r26, r18
    29b6:	b0 01       	movw	r22, r0
    29b8:	b3 9f       	mul	r27, r19
    29ba:	c0 01       	movw	r24, r0
    29bc:	a3 9f       	mul	r26, r19
    29be:	70 0d       	add	r23, r0
    29c0:	81 1d       	adc	r24, r1
    29c2:	11 24       	eor	r1, r1
    29c4:	91 1d       	adc	r25, r1
    29c6:	b2 9f       	mul	r27, r18
    29c8:	70 0d       	add	r23, r0
    29ca:	81 1d       	adc	r24, r1
    29cc:	11 24       	eor	r1, r1
    29ce:	91 1d       	adc	r25, r1
    29d0:	08 95       	ret

000029d2 <__subsf3>:
    29d2:	50 58       	subi	r21, 0x80	; 128

000029d4 <__addsf3>:
    29d4:	bb 27       	eor	r27, r27
    29d6:	aa 27       	eor	r26, r26
    29d8:	0e 94 01 15 	call	0x2a02	; 0x2a02 <__addsf3x>
    29dc:	0c 94 7b 16 	jmp	0x2cf6	; 0x2cf6 <__fp_round>
    29e0:	0e 94 42 16 	call	0x2c84	; 0x2c84 <__fp_pscA>
    29e4:	38 f0       	brcs	.+14     	; 0x29f4 <__addsf3+0x20>
    29e6:	0e 94 49 16 	call	0x2c92	; 0x2c92 <__fp_pscB>
    29ea:	20 f0       	brcs	.+8      	; 0x29f4 <__addsf3+0x20>
    29ec:	39 f4       	brne	.+14     	; 0x29fc <__addsf3+0x28>
    29ee:	9f 3f       	cpi	r25, 0xFF	; 255
    29f0:	19 f4       	brne	.+6      	; 0x29f8 <__addsf3+0x24>
    29f2:	26 f4       	brtc	.+8      	; 0x29fc <__addsf3+0x28>
    29f4:	0c 94 3f 16 	jmp	0x2c7e	; 0x2c7e <__fp_nan>
    29f8:	0e f4       	brtc	.+2      	; 0x29fc <__addsf3+0x28>
    29fa:	e0 95       	com	r30
    29fc:	e7 fb       	bst	r30, 7
    29fe:	0c 94 39 16 	jmp	0x2c72	; 0x2c72 <__fp_inf>

00002a02 <__addsf3x>:
    2a02:	e9 2f       	mov	r30, r25
    2a04:	0e 94 a0 16 	call	0x2d40	; 0x2d40 <__fp_split3>
    2a08:	58 f3       	brcs	.-42     	; 0x29e0 <__addsf3+0xc>
    2a0a:	ba 17       	cp	r27, r26
    2a0c:	62 07       	cpc	r22, r18
    2a0e:	73 07       	cpc	r23, r19
    2a10:	84 07       	cpc	r24, r20
    2a12:	95 07       	cpc	r25, r21
    2a14:	20 f0       	brcs	.+8      	; 0x2a1e <__addsf3x+0x1c>
    2a16:	79 f4       	brne	.+30     	; 0x2a36 <__addsf3x+0x34>
    2a18:	a6 f5       	brtc	.+104    	; 0x2a82 <__addsf3x+0x80>
    2a1a:	0c 94 c2 16 	jmp	0x2d84	; 0x2d84 <__fp_zero>
    2a1e:	0e f4       	brtc	.+2      	; 0x2a22 <__addsf3x+0x20>
    2a20:	e0 95       	com	r30
    2a22:	0b 2e       	mov	r0, r27
    2a24:	ba 2f       	mov	r27, r26
    2a26:	a0 2d       	mov	r26, r0
    2a28:	0b 01       	movw	r0, r22
    2a2a:	b9 01       	movw	r22, r18
    2a2c:	90 01       	movw	r18, r0
    2a2e:	0c 01       	movw	r0, r24
    2a30:	ca 01       	movw	r24, r20
    2a32:	a0 01       	movw	r20, r0
    2a34:	11 24       	eor	r1, r1
    2a36:	ff 27       	eor	r31, r31
    2a38:	59 1b       	sub	r21, r25
    2a3a:	99 f0       	breq	.+38     	; 0x2a62 <__addsf3x+0x60>
    2a3c:	59 3f       	cpi	r21, 0xF9	; 249
    2a3e:	50 f4       	brcc	.+20     	; 0x2a54 <__addsf3x+0x52>
    2a40:	50 3e       	cpi	r21, 0xE0	; 224
    2a42:	68 f1       	brcs	.+90     	; 0x2a9e <__addsf3x+0x9c>
    2a44:	1a 16       	cp	r1, r26
    2a46:	f0 40       	sbci	r31, 0x00	; 0
    2a48:	a2 2f       	mov	r26, r18
    2a4a:	23 2f       	mov	r18, r19
    2a4c:	34 2f       	mov	r19, r20
    2a4e:	44 27       	eor	r20, r20
    2a50:	58 5f       	subi	r21, 0xF8	; 248
    2a52:	f3 cf       	rjmp	.-26     	; 0x2a3a <__addsf3x+0x38>
    2a54:	46 95       	lsr	r20
    2a56:	37 95       	ror	r19
    2a58:	27 95       	ror	r18
    2a5a:	a7 95       	ror	r26
    2a5c:	f0 40       	sbci	r31, 0x00	; 0
    2a5e:	53 95       	inc	r21
    2a60:	c9 f7       	brne	.-14     	; 0x2a54 <__addsf3x+0x52>
    2a62:	7e f4       	brtc	.+30     	; 0x2a82 <__addsf3x+0x80>
    2a64:	1f 16       	cp	r1, r31
    2a66:	ba 0b       	sbc	r27, r26
    2a68:	62 0b       	sbc	r22, r18
    2a6a:	73 0b       	sbc	r23, r19
    2a6c:	84 0b       	sbc	r24, r20
    2a6e:	ba f0       	brmi	.+46     	; 0x2a9e <__addsf3x+0x9c>
    2a70:	91 50       	subi	r25, 0x01	; 1
    2a72:	a1 f0       	breq	.+40     	; 0x2a9c <__addsf3x+0x9a>
    2a74:	ff 0f       	add	r31, r31
    2a76:	bb 1f       	adc	r27, r27
    2a78:	66 1f       	adc	r22, r22
    2a7a:	77 1f       	adc	r23, r23
    2a7c:	88 1f       	adc	r24, r24
    2a7e:	c2 f7       	brpl	.-16     	; 0x2a70 <__addsf3x+0x6e>
    2a80:	0e c0       	rjmp	.+28     	; 0x2a9e <__addsf3x+0x9c>
    2a82:	ba 0f       	add	r27, r26
    2a84:	62 1f       	adc	r22, r18
    2a86:	73 1f       	adc	r23, r19
    2a88:	84 1f       	adc	r24, r20
    2a8a:	48 f4       	brcc	.+18     	; 0x2a9e <__addsf3x+0x9c>
    2a8c:	87 95       	ror	r24
    2a8e:	77 95       	ror	r23
    2a90:	67 95       	ror	r22
    2a92:	b7 95       	ror	r27
    2a94:	f7 95       	ror	r31
    2a96:	9e 3f       	cpi	r25, 0xFE	; 254
    2a98:	08 f0       	brcs	.+2      	; 0x2a9c <__addsf3x+0x9a>
    2a9a:	b0 cf       	rjmp	.-160    	; 0x29fc <__addsf3+0x28>
    2a9c:	93 95       	inc	r25
    2a9e:	88 0f       	add	r24, r24
    2aa0:	08 f0       	brcs	.+2      	; 0x2aa4 <__addsf3x+0xa2>
    2aa2:	99 27       	eor	r25, r25
    2aa4:	ee 0f       	add	r30, r30
    2aa6:	97 95       	ror	r25
    2aa8:	87 95       	ror	r24
    2aaa:	08 95       	ret

00002aac <cos>:
    2aac:	0e 94 52 16 	call	0x2ca4	; 0x2ca4 <__fp_rempio2>
    2ab0:	e3 95       	inc	r30
    2ab2:	0c 94 8c 16 	jmp	0x2d18	; 0x2d18 <__fp_sinus>

00002ab6 <__divsf3>:
    2ab6:	0e 94 6f 15 	call	0x2ade	; 0x2ade <__divsf3x>
    2aba:	0c 94 7b 16 	jmp	0x2cf6	; 0x2cf6 <__fp_round>
    2abe:	0e 94 49 16 	call	0x2c92	; 0x2c92 <__fp_pscB>
    2ac2:	58 f0       	brcs	.+22     	; 0x2ada <__divsf3+0x24>
    2ac4:	0e 94 42 16 	call	0x2c84	; 0x2c84 <__fp_pscA>
    2ac8:	40 f0       	brcs	.+16     	; 0x2ada <__divsf3+0x24>
    2aca:	29 f4       	brne	.+10     	; 0x2ad6 <__divsf3+0x20>
    2acc:	5f 3f       	cpi	r21, 0xFF	; 255
    2ace:	29 f0       	breq	.+10     	; 0x2ada <__divsf3+0x24>
    2ad0:	0c 94 39 16 	jmp	0x2c72	; 0x2c72 <__fp_inf>
    2ad4:	51 11       	cpse	r21, r1
    2ad6:	0c 94 c3 16 	jmp	0x2d86	; 0x2d86 <__fp_szero>
    2ada:	0c 94 3f 16 	jmp	0x2c7e	; 0x2c7e <__fp_nan>

00002ade <__divsf3x>:
    2ade:	0e 94 a0 16 	call	0x2d40	; 0x2d40 <__fp_split3>
    2ae2:	68 f3       	brcs	.-38     	; 0x2abe <__divsf3+0x8>

00002ae4 <__divsf3_pse>:
    2ae4:	99 23       	and	r25, r25
    2ae6:	b1 f3       	breq	.-20     	; 0x2ad4 <__divsf3+0x1e>
    2ae8:	55 23       	and	r21, r21
    2aea:	91 f3       	breq	.-28     	; 0x2ad0 <__divsf3+0x1a>
    2aec:	95 1b       	sub	r25, r21
    2aee:	55 0b       	sbc	r21, r21
    2af0:	bb 27       	eor	r27, r27
    2af2:	aa 27       	eor	r26, r26
    2af4:	62 17       	cp	r22, r18
    2af6:	73 07       	cpc	r23, r19
    2af8:	84 07       	cpc	r24, r20
    2afa:	38 f0       	brcs	.+14     	; 0x2b0a <__divsf3_pse+0x26>
    2afc:	9f 5f       	subi	r25, 0xFF	; 255
    2afe:	5f 4f       	sbci	r21, 0xFF	; 255
    2b00:	22 0f       	add	r18, r18
    2b02:	33 1f       	adc	r19, r19
    2b04:	44 1f       	adc	r20, r20
    2b06:	aa 1f       	adc	r26, r26
    2b08:	a9 f3       	breq	.-22     	; 0x2af4 <__divsf3_pse+0x10>
    2b0a:	35 d0       	rcall	.+106    	; 0x2b76 <__divsf3_pse+0x92>
    2b0c:	0e 2e       	mov	r0, r30
    2b0e:	3a f0       	brmi	.+14     	; 0x2b1e <__divsf3_pse+0x3a>
    2b10:	e0 e8       	ldi	r30, 0x80	; 128
    2b12:	32 d0       	rcall	.+100    	; 0x2b78 <__divsf3_pse+0x94>
    2b14:	91 50       	subi	r25, 0x01	; 1
    2b16:	50 40       	sbci	r21, 0x00	; 0
    2b18:	e6 95       	lsr	r30
    2b1a:	00 1c       	adc	r0, r0
    2b1c:	ca f7       	brpl	.-14     	; 0x2b10 <__divsf3_pse+0x2c>
    2b1e:	2b d0       	rcall	.+86     	; 0x2b76 <__divsf3_pse+0x92>
    2b20:	fe 2f       	mov	r31, r30
    2b22:	29 d0       	rcall	.+82     	; 0x2b76 <__divsf3_pse+0x92>
    2b24:	66 0f       	add	r22, r22
    2b26:	77 1f       	adc	r23, r23
    2b28:	88 1f       	adc	r24, r24
    2b2a:	bb 1f       	adc	r27, r27
    2b2c:	26 17       	cp	r18, r22
    2b2e:	37 07       	cpc	r19, r23
    2b30:	48 07       	cpc	r20, r24
    2b32:	ab 07       	cpc	r26, r27
    2b34:	b0 e8       	ldi	r27, 0x80	; 128
    2b36:	09 f0       	breq	.+2      	; 0x2b3a <__divsf3_pse+0x56>
    2b38:	bb 0b       	sbc	r27, r27
    2b3a:	80 2d       	mov	r24, r0
    2b3c:	bf 01       	movw	r22, r30
    2b3e:	ff 27       	eor	r31, r31
    2b40:	93 58       	subi	r25, 0x83	; 131
    2b42:	5f 4f       	sbci	r21, 0xFF	; 255
    2b44:	3a f0       	brmi	.+14     	; 0x2b54 <__divsf3_pse+0x70>
    2b46:	9e 3f       	cpi	r25, 0xFE	; 254
    2b48:	51 05       	cpc	r21, r1
    2b4a:	78 f0       	brcs	.+30     	; 0x2b6a <__divsf3_pse+0x86>
    2b4c:	0c 94 39 16 	jmp	0x2c72	; 0x2c72 <__fp_inf>
    2b50:	0c 94 c3 16 	jmp	0x2d86	; 0x2d86 <__fp_szero>
    2b54:	5f 3f       	cpi	r21, 0xFF	; 255
    2b56:	e4 f3       	brlt	.-8      	; 0x2b50 <__divsf3_pse+0x6c>
    2b58:	98 3e       	cpi	r25, 0xE8	; 232
    2b5a:	d4 f3       	brlt	.-12     	; 0x2b50 <__divsf3_pse+0x6c>
    2b5c:	86 95       	lsr	r24
    2b5e:	77 95       	ror	r23
    2b60:	67 95       	ror	r22
    2b62:	b7 95       	ror	r27
    2b64:	f7 95       	ror	r31
    2b66:	9f 5f       	subi	r25, 0xFF	; 255
    2b68:	c9 f7       	brne	.-14     	; 0x2b5c <__divsf3_pse+0x78>
    2b6a:	88 0f       	add	r24, r24
    2b6c:	91 1d       	adc	r25, r1
    2b6e:	96 95       	lsr	r25
    2b70:	87 95       	ror	r24
    2b72:	97 f9       	bld	r25, 7
    2b74:	08 95       	ret
    2b76:	e1 e0       	ldi	r30, 0x01	; 1
    2b78:	66 0f       	add	r22, r22
    2b7a:	77 1f       	adc	r23, r23
    2b7c:	88 1f       	adc	r24, r24
    2b7e:	bb 1f       	adc	r27, r27
    2b80:	62 17       	cp	r22, r18
    2b82:	73 07       	cpc	r23, r19
    2b84:	84 07       	cpc	r24, r20
    2b86:	ba 07       	cpc	r27, r26
    2b88:	20 f0       	brcs	.+8      	; 0x2b92 <__divsf3_pse+0xae>
    2b8a:	62 1b       	sub	r22, r18
    2b8c:	73 0b       	sbc	r23, r19
    2b8e:	84 0b       	sbc	r24, r20
    2b90:	ba 0b       	sbc	r27, r26
    2b92:	ee 1f       	adc	r30, r30
    2b94:	88 f7       	brcc	.-30     	; 0x2b78 <__divsf3_pse+0x94>
    2b96:	e0 95       	com	r30
    2b98:	08 95       	ret

00002b9a <__fixunssfsi>:
    2b9a:	0e 94 a8 16 	call	0x2d50	; 0x2d50 <__fp_splitA>
    2b9e:	88 f0       	brcs	.+34     	; 0x2bc2 <__fixunssfsi+0x28>
    2ba0:	9f 57       	subi	r25, 0x7F	; 127
    2ba2:	98 f0       	brcs	.+38     	; 0x2bca <__fixunssfsi+0x30>
    2ba4:	b9 2f       	mov	r27, r25
    2ba6:	99 27       	eor	r25, r25
    2ba8:	b7 51       	subi	r27, 0x17	; 23
    2baa:	b0 f0       	brcs	.+44     	; 0x2bd8 <__fixunssfsi+0x3e>
    2bac:	e1 f0       	breq	.+56     	; 0x2be6 <__fixunssfsi+0x4c>
    2bae:	66 0f       	add	r22, r22
    2bb0:	77 1f       	adc	r23, r23
    2bb2:	88 1f       	adc	r24, r24
    2bb4:	99 1f       	adc	r25, r25
    2bb6:	1a f0       	brmi	.+6      	; 0x2bbe <__fixunssfsi+0x24>
    2bb8:	ba 95       	dec	r27
    2bba:	c9 f7       	brne	.-14     	; 0x2bae <__fixunssfsi+0x14>
    2bbc:	14 c0       	rjmp	.+40     	; 0x2be6 <__fixunssfsi+0x4c>
    2bbe:	b1 30       	cpi	r27, 0x01	; 1
    2bc0:	91 f0       	breq	.+36     	; 0x2be6 <__fixunssfsi+0x4c>
    2bc2:	0e 94 c2 16 	call	0x2d84	; 0x2d84 <__fp_zero>
    2bc6:	b1 e0       	ldi	r27, 0x01	; 1
    2bc8:	08 95       	ret
    2bca:	0c 94 c2 16 	jmp	0x2d84	; 0x2d84 <__fp_zero>
    2bce:	67 2f       	mov	r22, r23
    2bd0:	78 2f       	mov	r23, r24
    2bd2:	88 27       	eor	r24, r24
    2bd4:	b8 5f       	subi	r27, 0xF8	; 248
    2bd6:	39 f0       	breq	.+14     	; 0x2be6 <__fixunssfsi+0x4c>
    2bd8:	b9 3f       	cpi	r27, 0xF9	; 249
    2bda:	cc f3       	brlt	.-14     	; 0x2bce <__fixunssfsi+0x34>
    2bdc:	86 95       	lsr	r24
    2bde:	77 95       	ror	r23
    2be0:	67 95       	ror	r22
    2be2:	b3 95       	inc	r27
    2be4:	d9 f7       	brne	.-10     	; 0x2bdc <__fixunssfsi+0x42>
    2be6:	3e f4       	brtc	.+14     	; 0x2bf6 <__fixunssfsi+0x5c>
    2be8:	90 95       	com	r25
    2bea:	80 95       	com	r24
    2bec:	70 95       	com	r23
    2bee:	61 95       	neg	r22
    2bf0:	7f 4f       	sbci	r23, 0xFF	; 255
    2bf2:	8f 4f       	sbci	r24, 0xFF	; 255
    2bf4:	9f 4f       	sbci	r25, 0xFF	; 255
    2bf6:	08 95       	ret

00002bf8 <__floatunsisf>:
    2bf8:	e8 94       	clt
    2bfa:	09 c0       	rjmp	.+18     	; 0x2c0e <__floatsisf+0x12>

00002bfc <__floatsisf>:
    2bfc:	97 fb       	bst	r25, 7
    2bfe:	3e f4       	brtc	.+14     	; 0x2c0e <__floatsisf+0x12>
    2c00:	90 95       	com	r25
    2c02:	80 95       	com	r24
    2c04:	70 95       	com	r23
    2c06:	61 95       	neg	r22
    2c08:	7f 4f       	sbci	r23, 0xFF	; 255
    2c0a:	8f 4f       	sbci	r24, 0xFF	; 255
    2c0c:	9f 4f       	sbci	r25, 0xFF	; 255
    2c0e:	99 23       	and	r25, r25
    2c10:	a9 f0       	breq	.+42     	; 0x2c3c <__floatsisf+0x40>
    2c12:	f9 2f       	mov	r31, r25
    2c14:	96 e9       	ldi	r25, 0x96	; 150
    2c16:	bb 27       	eor	r27, r27
    2c18:	93 95       	inc	r25
    2c1a:	f6 95       	lsr	r31
    2c1c:	87 95       	ror	r24
    2c1e:	77 95       	ror	r23
    2c20:	67 95       	ror	r22
    2c22:	b7 95       	ror	r27
    2c24:	f1 11       	cpse	r31, r1
    2c26:	f8 cf       	rjmp	.-16     	; 0x2c18 <__floatsisf+0x1c>
    2c28:	fa f4       	brpl	.+62     	; 0x2c68 <__floatsisf+0x6c>
    2c2a:	bb 0f       	add	r27, r27
    2c2c:	11 f4       	brne	.+4      	; 0x2c32 <__floatsisf+0x36>
    2c2e:	60 ff       	sbrs	r22, 0
    2c30:	1b c0       	rjmp	.+54     	; 0x2c68 <__floatsisf+0x6c>
    2c32:	6f 5f       	subi	r22, 0xFF	; 255
    2c34:	7f 4f       	sbci	r23, 0xFF	; 255
    2c36:	8f 4f       	sbci	r24, 0xFF	; 255
    2c38:	9f 4f       	sbci	r25, 0xFF	; 255
    2c3a:	16 c0       	rjmp	.+44     	; 0x2c68 <__floatsisf+0x6c>
    2c3c:	88 23       	and	r24, r24
    2c3e:	11 f0       	breq	.+4      	; 0x2c44 <__floatsisf+0x48>
    2c40:	96 e9       	ldi	r25, 0x96	; 150
    2c42:	11 c0       	rjmp	.+34     	; 0x2c66 <__floatsisf+0x6a>
    2c44:	77 23       	and	r23, r23
    2c46:	21 f0       	breq	.+8      	; 0x2c50 <__floatsisf+0x54>
    2c48:	9e e8       	ldi	r25, 0x8E	; 142
    2c4a:	87 2f       	mov	r24, r23
    2c4c:	76 2f       	mov	r23, r22
    2c4e:	05 c0       	rjmp	.+10     	; 0x2c5a <__floatsisf+0x5e>
    2c50:	66 23       	and	r22, r22
    2c52:	71 f0       	breq	.+28     	; 0x2c70 <__floatsisf+0x74>
    2c54:	96 e8       	ldi	r25, 0x86	; 134
    2c56:	86 2f       	mov	r24, r22
    2c58:	70 e0       	ldi	r23, 0x00	; 0
    2c5a:	60 e0       	ldi	r22, 0x00	; 0
    2c5c:	2a f0       	brmi	.+10     	; 0x2c68 <__floatsisf+0x6c>
    2c5e:	9a 95       	dec	r25
    2c60:	66 0f       	add	r22, r22
    2c62:	77 1f       	adc	r23, r23
    2c64:	88 1f       	adc	r24, r24
    2c66:	da f7       	brpl	.-10     	; 0x2c5e <__floatsisf+0x62>
    2c68:	88 0f       	add	r24, r24
    2c6a:	96 95       	lsr	r25
    2c6c:	87 95       	ror	r24
    2c6e:	97 f9       	bld	r25, 7
    2c70:	08 95       	ret

00002c72 <__fp_inf>:
    2c72:	97 f9       	bld	r25, 7
    2c74:	9f 67       	ori	r25, 0x7F	; 127
    2c76:	80 e8       	ldi	r24, 0x80	; 128
    2c78:	70 e0       	ldi	r23, 0x00	; 0
    2c7a:	60 e0       	ldi	r22, 0x00	; 0
    2c7c:	08 95       	ret

00002c7e <__fp_nan>:
    2c7e:	9f ef       	ldi	r25, 0xFF	; 255
    2c80:	80 ec       	ldi	r24, 0xC0	; 192
    2c82:	08 95       	ret

00002c84 <__fp_pscA>:
    2c84:	00 24       	eor	r0, r0
    2c86:	0a 94       	dec	r0
    2c88:	16 16       	cp	r1, r22
    2c8a:	17 06       	cpc	r1, r23
    2c8c:	18 06       	cpc	r1, r24
    2c8e:	09 06       	cpc	r0, r25
    2c90:	08 95       	ret

00002c92 <__fp_pscB>:
    2c92:	00 24       	eor	r0, r0
    2c94:	0a 94       	dec	r0
    2c96:	12 16       	cp	r1, r18
    2c98:	13 06       	cpc	r1, r19
    2c9a:	14 06       	cpc	r1, r20
    2c9c:	05 06       	cpc	r0, r21
    2c9e:	08 95       	ret
    2ca0:	0c 94 3f 16 	jmp	0x2c7e	; 0x2c7e <__fp_nan>

00002ca4 <__fp_rempio2>:
    2ca4:	0e 94 a8 16 	call	0x2d50	; 0x2d50 <__fp_splitA>
    2ca8:	d8 f3       	brcs	.-10     	; 0x2ca0 <__fp_pscB+0xe>
    2caa:	e8 94       	clt
    2cac:	e0 e0       	ldi	r30, 0x00	; 0
    2cae:	bb 27       	eor	r27, r27
    2cb0:	9f 57       	subi	r25, 0x7F	; 127
    2cb2:	f0 f0       	brcs	.+60     	; 0x2cf0 <__fp_rempio2+0x4c>
    2cb4:	2a ed       	ldi	r18, 0xDA	; 218
    2cb6:	3f e0       	ldi	r19, 0x0F	; 15
    2cb8:	49 ec       	ldi	r20, 0xC9	; 201
    2cba:	06 c0       	rjmp	.+12     	; 0x2cc8 <__fp_rempio2+0x24>
    2cbc:	ee 0f       	add	r30, r30
    2cbe:	bb 0f       	add	r27, r27
    2cc0:	66 1f       	adc	r22, r22
    2cc2:	77 1f       	adc	r23, r23
    2cc4:	88 1f       	adc	r24, r24
    2cc6:	28 f0       	brcs	.+10     	; 0x2cd2 <__fp_rempio2+0x2e>
    2cc8:	b2 3a       	cpi	r27, 0xA2	; 162
    2cca:	62 07       	cpc	r22, r18
    2ccc:	73 07       	cpc	r23, r19
    2cce:	84 07       	cpc	r24, r20
    2cd0:	28 f0       	brcs	.+10     	; 0x2cdc <__fp_rempio2+0x38>
    2cd2:	b2 5a       	subi	r27, 0xA2	; 162
    2cd4:	62 0b       	sbc	r22, r18
    2cd6:	73 0b       	sbc	r23, r19
    2cd8:	84 0b       	sbc	r24, r20
    2cda:	e3 95       	inc	r30
    2cdc:	9a 95       	dec	r25
    2cde:	72 f7       	brpl	.-36     	; 0x2cbc <__fp_rempio2+0x18>
    2ce0:	80 38       	cpi	r24, 0x80	; 128
    2ce2:	30 f4       	brcc	.+12     	; 0x2cf0 <__fp_rempio2+0x4c>
    2ce4:	9a 95       	dec	r25
    2ce6:	bb 0f       	add	r27, r27
    2ce8:	66 1f       	adc	r22, r22
    2cea:	77 1f       	adc	r23, r23
    2cec:	88 1f       	adc	r24, r24
    2cee:	d2 f7       	brpl	.-12     	; 0x2ce4 <__fp_rempio2+0x40>
    2cf0:	90 48       	sbci	r25, 0x80	; 128
    2cf2:	0c 94 7f 17 	jmp	0x2efe	; 0x2efe <__fp_mpack_finite>

00002cf6 <__fp_round>:
    2cf6:	09 2e       	mov	r0, r25
    2cf8:	03 94       	inc	r0
    2cfa:	00 0c       	add	r0, r0
    2cfc:	11 f4       	brne	.+4      	; 0x2d02 <__fp_round+0xc>
    2cfe:	88 23       	and	r24, r24
    2d00:	52 f0       	brmi	.+20     	; 0x2d16 <__fp_round+0x20>
    2d02:	bb 0f       	add	r27, r27
    2d04:	40 f4       	brcc	.+16     	; 0x2d16 <__fp_round+0x20>
    2d06:	bf 2b       	or	r27, r31
    2d08:	11 f4       	brne	.+4      	; 0x2d0e <__fp_round+0x18>
    2d0a:	60 ff       	sbrs	r22, 0
    2d0c:	04 c0       	rjmp	.+8      	; 0x2d16 <__fp_round+0x20>
    2d0e:	6f 5f       	subi	r22, 0xFF	; 255
    2d10:	7f 4f       	sbci	r23, 0xFF	; 255
    2d12:	8f 4f       	sbci	r24, 0xFF	; 255
    2d14:	9f 4f       	sbci	r25, 0xFF	; 255
    2d16:	08 95       	ret

00002d18 <__fp_sinus>:
    2d18:	ef 93       	push	r30
    2d1a:	e0 ff       	sbrs	r30, 0
    2d1c:	07 c0       	rjmp	.+14     	; 0x2d2c <__fp_sinus+0x14>
    2d1e:	a2 ea       	ldi	r26, 0xA2	; 162
    2d20:	2a ed       	ldi	r18, 0xDA	; 218
    2d22:	3f e0       	ldi	r19, 0x0F	; 15
    2d24:	49 ec       	ldi	r20, 0xC9	; 201
    2d26:	5f eb       	ldi	r21, 0xBF	; 191
    2d28:	0e 94 01 15 	call	0x2a02	; 0x2a02 <__addsf3x>
    2d2c:	0e 94 7b 16 	call	0x2cf6	; 0x2cf6 <__fp_round>
    2d30:	0f 90       	pop	r0
    2d32:	03 94       	inc	r0
    2d34:	01 fc       	sbrc	r0, 1
    2d36:	90 58       	subi	r25, 0x80	; 128
    2d38:	e2 e6       	ldi	r30, 0x62	; 98
    2d3a:	f0 e0       	ldi	r31, 0x00	; 0
    2d3c:	0c 94 8b 17 	jmp	0x2f16	; 0x2f16 <__fp_powsodd>

00002d40 <__fp_split3>:
    2d40:	57 fd       	sbrc	r21, 7
    2d42:	90 58       	subi	r25, 0x80	; 128
    2d44:	44 0f       	add	r20, r20
    2d46:	55 1f       	adc	r21, r21
    2d48:	59 f0       	breq	.+22     	; 0x2d60 <__fp_splitA+0x10>
    2d4a:	5f 3f       	cpi	r21, 0xFF	; 255
    2d4c:	71 f0       	breq	.+28     	; 0x2d6a <__fp_splitA+0x1a>
    2d4e:	47 95       	ror	r20

00002d50 <__fp_splitA>:
    2d50:	88 0f       	add	r24, r24
    2d52:	97 fb       	bst	r25, 7
    2d54:	99 1f       	adc	r25, r25
    2d56:	61 f0       	breq	.+24     	; 0x2d70 <__fp_splitA+0x20>
    2d58:	9f 3f       	cpi	r25, 0xFF	; 255
    2d5a:	79 f0       	breq	.+30     	; 0x2d7a <__fp_splitA+0x2a>
    2d5c:	87 95       	ror	r24
    2d5e:	08 95       	ret
    2d60:	12 16       	cp	r1, r18
    2d62:	13 06       	cpc	r1, r19
    2d64:	14 06       	cpc	r1, r20
    2d66:	55 1f       	adc	r21, r21
    2d68:	f2 cf       	rjmp	.-28     	; 0x2d4e <__fp_split3+0xe>
    2d6a:	46 95       	lsr	r20
    2d6c:	f1 df       	rcall	.-30     	; 0x2d50 <__fp_splitA>
    2d6e:	08 c0       	rjmp	.+16     	; 0x2d80 <__fp_splitA+0x30>
    2d70:	16 16       	cp	r1, r22
    2d72:	17 06       	cpc	r1, r23
    2d74:	18 06       	cpc	r1, r24
    2d76:	99 1f       	adc	r25, r25
    2d78:	f1 cf       	rjmp	.-30     	; 0x2d5c <__fp_splitA+0xc>
    2d7a:	86 95       	lsr	r24
    2d7c:	71 05       	cpc	r23, r1
    2d7e:	61 05       	cpc	r22, r1
    2d80:	08 94       	sec
    2d82:	08 95       	ret

00002d84 <__fp_zero>:
    2d84:	e8 94       	clt

00002d86 <__fp_szero>:
    2d86:	bb 27       	eor	r27, r27
    2d88:	66 27       	eor	r22, r22
    2d8a:	77 27       	eor	r23, r23
    2d8c:	cb 01       	movw	r24, r22
    2d8e:	97 f9       	bld	r25, 7
    2d90:	08 95       	ret

00002d92 <__mulsf3>:
    2d92:	0e 94 dc 16 	call	0x2db8	; 0x2db8 <__mulsf3x>
    2d96:	0c 94 7b 16 	jmp	0x2cf6	; 0x2cf6 <__fp_round>
    2d9a:	0e 94 42 16 	call	0x2c84	; 0x2c84 <__fp_pscA>
    2d9e:	38 f0       	brcs	.+14     	; 0x2dae <__mulsf3+0x1c>
    2da0:	0e 94 49 16 	call	0x2c92	; 0x2c92 <__fp_pscB>
    2da4:	20 f0       	brcs	.+8      	; 0x2dae <__mulsf3+0x1c>
    2da6:	95 23       	and	r25, r21
    2da8:	11 f0       	breq	.+4      	; 0x2dae <__mulsf3+0x1c>
    2daa:	0c 94 39 16 	jmp	0x2c72	; 0x2c72 <__fp_inf>
    2dae:	0c 94 3f 16 	jmp	0x2c7e	; 0x2c7e <__fp_nan>
    2db2:	11 24       	eor	r1, r1
    2db4:	0c 94 c3 16 	jmp	0x2d86	; 0x2d86 <__fp_szero>

00002db8 <__mulsf3x>:
    2db8:	0e 94 a0 16 	call	0x2d40	; 0x2d40 <__fp_split3>
    2dbc:	70 f3       	brcs	.-36     	; 0x2d9a <__mulsf3+0x8>

00002dbe <__mulsf3_pse>:
    2dbe:	95 9f       	mul	r25, r21
    2dc0:	c1 f3       	breq	.-16     	; 0x2db2 <__mulsf3+0x20>
    2dc2:	95 0f       	add	r25, r21
    2dc4:	50 e0       	ldi	r21, 0x00	; 0
    2dc6:	55 1f       	adc	r21, r21
    2dc8:	62 9f       	mul	r22, r18
    2dca:	f0 01       	movw	r30, r0
    2dcc:	72 9f       	mul	r23, r18
    2dce:	bb 27       	eor	r27, r27
    2dd0:	f0 0d       	add	r31, r0
    2dd2:	b1 1d       	adc	r27, r1
    2dd4:	63 9f       	mul	r22, r19
    2dd6:	aa 27       	eor	r26, r26
    2dd8:	f0 0d       	add	r31, r0
    2dda:	b1 1d       	adc	r27, r1
    2ddc:	aa 1f       	adc	r26, r26
    2dde:	64 9f       	mul	r22, r20
    2de0:	66 27       	eor	r22, r22
    2de2:	b0 0d       	add	r27, r0
    2de4:	a1 1d       	adc	r26, r1
    2de6:	66 1f       	adc	r22, r22
    2de8:	82 9f       	mul	r24, r18
    2dea:	22 27       	eor	r18, r18
    2dec:	b0 0d       	add	r27, r0
    2dee:	a1 1d       	adc	r26, r1
    2df0:	62 1f       	adc	r22, r18
    2df2:	73 9f       	mul	r23, r19
    2df4:	b0 0d       	add	r27, r0
    2df6:	a1 1d       	adc	r26, r1
    2df8:	62 1f       	adc	r22, r18
    2dfa:	83 9f       	mul	r24, r19
    2dfc:	a0 0d       	add	r26, r0
    2dfe:	61 1d       	adc	r22, r1
    2e00:	22 1f       	adc	r18, r18
    2e02:	74 9f       	mul	r23, r20
    2e04:	33 27       	eor	r19, r19
    2e06:	a0 0d       	add	r26, r0
    2e08:	61 1d       	adc	r22, r1
    2e0a:	23 1f       	adc	r18, r19
    2e0c:	84 9f       	mul	r24, r20
    2e0e:	60 0d       	add	r22, r0
    2e10:	21 1d       	adc	r18, r1
    2e12:	82 2f       	mov	r24, r18
    2e14:	76 2f       	mov	r23, r22
    2e16:	6a 2f       	mov	r22, r26
    2e18:	11 24       	eor	r1, r1
    2e1a:	9f 57       	subi	r25, 0x7F	; 127
    2e1c:	50 40       	sbci	r21, 0x00	; 0
    2e1e:	9a f0       	brmi	.+38     	; 0x2e46 <__mulsf3_pse+0x88>
    2e20:	f1 f0       	breq	.+60     	; 0x2e5e <__mulsf3_pse+0xa0>
    2e22:	88 23       	and	r24, r24
    2e24:	4a f0       	brmi	.+18     	; 0x2e38 <__mulsf3_pse+0x7a>
    2e26:	ee 0f       	add	r30, r30
    2e28:	ff 1f       	adc	r31, r31
    2e2a:	bb 1f       	adc	r27, r27
    2e2c:	66 1f       	adc	r22, r22
    2e2e:	77 1f       	adc	r23, r23
    2e30:	88 1f       	adc	r24, r24
    2e32:	91 50       	subi	r25, 0x01	; 1
    2e34:	50 40       	sbci	r21, 0x00	; 0
    2e36:	a9 f7       	brne	.-22     	; 0x2e22 <__mulsf3_pse+0x64>
    2e38:	9e 3f       	cpi	r25, 0xFE	; 254
    2e3a:	51 05       	cpc	r21, r1
    2e3c:	80 f0       	brcs	.+32     	; 0x2e5e <__mulsf3_pse+0xa0>
    2e3e:	0c 94 39 16 	jmp	0x2c72	; 0x2c72 <__fp_inf>
    2e42:	0c 94 c3 16 	jmp	0x2d86	; 0x2d86 <__fp_szero>
    2e46:	5f 3f       	cpi	r21, 0xFF	; 255
    2e48:	e4 f3       	brlt	.-8      	; 0x2e42 <__mulsf3_pse+0x84>
    2e4a:	98 3e       	cpi	r25, 0xE8	; 232
    2e4c:	d4 f3       	brlt	.-12     	; 0x2e42 <__mulsf3_pse+0x84>
    2e4e:	86 95       	lsr	r24
    2e50:	77 95       	ror	r23
    2e52:	67 95       	ror	r22
    2e54:	b7 95       	ror	r27
    2e56:	f7 95       	ror	r31
    2e58:	e7 95       	ror	r30
    2e5a:	9f 5f       	subi	r25, 0xFF	; 255
    2e5c:	c1 f7       	brne	.-16     	; 0x2e4e <__mulsf3_pse+0x90>
    2e5e:	fe 2b       	or	r31, r30
    2e60:	88 0f       	add	r24, r24
    2e62:	91 1d       	adc	r25, r1
    2e64:	96 95       	lsr	r25
    2e66:	87 95       	ror	r24
    2e68:	97 f9       	bld	r25, 7
    2e6a:	08 95       	ret

00002e6c <round>:
    2e6c:	0e 94 a8 16 	call	0x2d50	; 0x2d50 <__fp_splitA>
    2e70:	e8 f0       	brcs	.+58     	; 0x2eac <round+0x40>
    2e72:	9e 37       	cpi	r25, 0x7E	; 126
    2e74:	e8 f0       	brcs	.+58     	; 0x2eb0 <round+0x44>
    2e76:	96 39       	cpi	r25, 0x96	; 150
    2e78:	b8 f4       	brcc	.+46     	; 0x2ea8 <round+0x3c>
    2e7a:	9e 38       	cpi	r25, 0x8E	; 142
    2e7c:	48 f4       	brcc	.+18     	; 0x2e90 <round+0x24>
    2e7e:	67 2f       	mov	r22, r23
    2e80:	78 2f       	mov	r23, r24
    2e82:	88 27       	eor	r24, r24
    2e84:	98 5f       	subi	r25, 0xF8	; 248
    2e86:	f9 cf       	rjmp	.-14     	; 0x2e7a <round+0xe>
    2e88:	86 95       	lsr	r24
    2e8a:	77 95       	ror	r23
    2e8c:	67 95       	ror	r22
    2e8e:	93 95       	inc	r25
    2e90:	95 39       	cpi	r25, 0x95	; 149
    2e92:	d0 f3       	brcs	.-12     	; 0x2e88 <round+0x1c>
    2e94:	b6 2f       	mov	r27, r22
    2e96:	b1 70       	andi	r27, 0x01	; 1
    2e98:	6b 0f       	add	r22, r27
    2e9a:	71 1d       	adc	r23, r1
    2e9c:	81 1d       	adc	r24, r1
    2e9e:	20 f4       	brcc	.+8      	; 0x2ea8 <round+0x3c>
    2ea0:	87 95       	ror	r24
    2ea2:	77 95       	ror	r23
    2ea4:	67 95       	ror	r22
    2ea6:	93 95       	inc	r25
    2ea8:	0c 94 62 17 	jmp	0x2ec4	; 0x2ec4 <__fp_mintl>
    2eac:	0c 94 7d 17 	jmp	0x2efa	; 0x2efa <__fp_mpack>
    2eb0:	0c 94 c3 16 	jmp	0x2d86	; 0x2d86 <__fp_szero>

00002eb4 <sin>:
    2eb4:	9f 93       	push	r25
    2eb6:	0e 94 52 16 	call	0x2ca4	; 0x2ca4 <__fp_rempio2>
    2eba:	0f 90       	pop	r0
    2ebc:	07 fc       	sbrc	r0, 7
    2ebe:	ee 5f       	subi	r30, 0xFE	; 254
    2ec0:	0c 94 8c 16 	jmp	0x2d18	; 0x2d18 <__fp_sinus>

00002ec4 <__fp_mintl>:
    2ec4:	88 23       	and	r24, r24
    2ec6:	71 f4       	brne	.+28     	; 0x2ee4 <__fp_mintl+0x20>
    2ec8:	77 23       	and	r23, r23
    2eca:	21 f0       	breq	.+8      	; 0x2ed4 <__fp_mintl+0x10>
    2ecc:	98 50       	subi	r25, 0x08	; 8
    2ece:	87 2b       	or	r24, r23
    2ed0:	76 2f       	mov	r23, r22
    2ed2:	07 c0       	rjmp	.+14     	; 0x2ee2 <__fp_mintl+0x1e>
    2ed4:	66 23       	and	r22, r22
    2ed6:	11 f4       	brne	.+4      	; 0x2edc <__fp_mintl+0x18>
    2ed8:	99 27       	eor	r25, r25
    2eda:	0d c0       	rjmp	.+26     	; 0x2ef6 <__fp_mintl+0x32>
    2edc:	90 51       	subi	r25, 0x10	; 16
    2ede:	86 2b       	or	r24, r22
    2ee0:	70 e0       	ldi	r23, 0x00	; 0
    2ee2:	60 e0       	ldi	r22, 0x00	; 0
    2ee4:	2a f0       	brmi	.+10     	; 0x2ef0 <__fp_mintl+0x2c>
    2ee6:	9a 95       	dec	r25
    2ee8:	66 0f       	add	r22, r22
    2eea:	77 1f       	adc	r23, r23
    2eec:	88 1f       	adc	r24, r24
    2eee:	da f7       	brpl	.-10     	; 0x2ee6 <__fp_mintl+0x22>
    2ef0:	88 0f       	add	r24, r24
    2ef2:	96 95       	lsr	r25
    2ef4:	87 95       	ror	r24
    2ef6:	97 f9       	bld	r25, 7
    2ef8:	08 95       	ret

00002efa <__fp_mpack>:
    2efa:	9f 3f       	cpi	r25, 0xFF	; 255
    2efc:	31 f0       	breq	.+12     	; 0x2f0a <__fp_mpack_finite+0xc>

00002efe <__fp_mpack_finite>:
    2efe:	91 50       	subi	r25, 0x01	; 1
    2f00:	20 f4       	brcc	.+8      	; 0x2f0a <__fp_mpack_finite+0xc>
    2f02:	87 95       	ror	r24
    2f04:	77 95       	ror	r23
    2f06:	67 95       	ror	r22
    2f08:	b7 95       	ror	r27
    2f0a:	88 0f       	add	r24, r24
    2f0c:	91 1d       	adc	r25, r1
    2f0e:	96 95       	lsr	r25
    2f10:	87 95       	ror	r24
    2f12:	97 f9       	bld	r25, 7
    2f14:	08 95       	ret

00002f16 <__fp_powsodd>:
    2f16:	9f 93       	push	r25
    2f18:	8f 93       	push	r24
    2f1a:	7f 93       	push	r23
    2f1c:	6f 93       	push	r22
    2f1e:	ff 93       	push	r31
    2f20:	ef 93       	push	r30
    2f22:	9b 01       	movw	r18, r22
    2f24:	ac 01       	movw	r20, r24
    2f26:	0e 94 c9 16 	call	0x2d92	; 0x2d92 <__mulsf3>
    2f2a:	ef 91       	pop	r30
    2f2c:	ff 91       	pop	r31
    2f2e:	0e 94 9f 17 	call	0x2f3e	; 0x2f3e <__fp_powser>
    2f32:	2f 91       	pop	r18
    2f34:	3f 91       	pop	r19
    2f36:	4f 91       	pop	r20
    2f38:	5f 91       	pop	r21
    2f3a:	0c 94 c9 16 	jmp	0x2d92	; 0x2d92 <__mulsf3>

00002f3e <__fp_powser>:
    2f3e:	df 93       	push	r29
    2f40:	cf 93       	push	r28
    2f42:	1f 93       	push	r17
    2f44:	0f 93       	push	r16
    2f46:	ff 92       	push	r15
    2f48:	ef 92       	push	r14
    2f4a:	df 92       	push	r13
    2f4c:	7b 01       	movw	r14, r22
    2f4e:	8c 01       	movw	r16, r24
    2f50:	68 94       	set
    2f52:	06 c0       	rjmp	.+12     	; 0x2f60 <__fp_powser+0x22>
    2f54:	da 2e       	mov	r13, r26
    2f56:	ef 01       	movw	r28, r30
    2f58:	0e 94 dc 16 	call	0x2db8	; 0x2db8 <__mulsf3x>
    2f5c:	fe 01       	movw	r30, r28
    2f5e:	e8 94       	clt
    2f60:	a5 91       	lpm	r26, Z+
    2f62:	25 91       	lpm	r18, Z+
    2f64:	35 91       	lpm	r19, Z+
    2f66:	45 91       	lpm	r20, Z+
    2f68:	55 91       	lpm	r21, Z+
    2f6a:	a6 f3       	brts	.-24     	; 0x2f54 <__fp_powser+0x16>
    2f6c:	ef 01       	movw	r28, r30
    2f6e:	0e 94 01 15 	call	0x2a02	; 0x2a02 <__addsf3x>
    2f72:	fe 01       	movw	r30, r28
    2f74:	97 01       	movw	r18, r14
    2f76:	a8 01       	movw	r20, r16
    2f78:	da 94       	dec	r13
    2f7a:	69 f7       	brne	.-38     	; 0x2f56 <__fp_powser+0x18>
    2f7c:	df 90       	pop	r13
    2f7e:	ef 90       	pop	r14
    2f80:	ff 90       	pop	r15
    2f82:	0f 91       	pop	r16
    2f84:	1f 91       	pop	r17
    2f86:	cf 91       	pop	r28
    2f88:	df 91       	pop	r29
    2f8a:	08 95       	ret

00002f8c <malloc>:
    2f8c:	cf 93       	push	r28
    2f8e:	df 93       	push	r29
    2f90:	82 30       	cpi	r24, 0x02	; 2
    2f92:	91 05       	cpc	r25, r1
    2f94:	10 f4       	brcc	.+4      	; 0x2f9a <malloc+0xe>
    2f96:	82 e0       	ldi	r24, 0x02	; 2
    2f98:	90 e0       	ldi	r25, 0x00	; 0
    2f9a:	e0 91 17 01 	lds	r30, 0x0117	; 0x800117 <__flp>
    2f9e:	f0 91 18 01 	lds	r31, 0x0118	; 0x800118 <__flp+0x1>
    2fa2:	20 e0       	ldi	r18, 0x00	; 0
    2fa4:	30 e0       	ldi	r19, 0x00	; 0
    2fa6:	c0 e0       	ldi	r28, 0x00	; 0
    2fa8:	d0 e0       	ldi	r29, 0x00	; 0
    2faa:	30 97       	sbiw	r30, 0x00	; 0
    2fac:	11 f1       	breq	.+68     	; 0x2ff2 <malloc+0x66>
    2fae:	40 81       	ld	r20, Z
    2fb0:	51 81       	ldd	r21, Z+1	; 0x01
    2fb2:	48 17       	cp	r20, r24
    2fb4:	59 07       	cpc	r21, r25
    2fb6:	c0 f0       	brcs	.+48     	; 0x2fe8 <malloc+0x5c>
    2fb8:	48 17       	cp	r20, r24
    2fba:	59 07       	cpc	r21, r25
    2fbc:	61 f4       	brne	.+24     	; 0x2fd6 <malloc+0x4a>
    2fbe:	82 81       	ldd	r24, Z+2	; 0x02
    2fc0:	93 81       	ldd	r25, Z+3	; 0x03
    2fc2:	20 97       	sbiw	r28, 0x00	; 0
    2fc4:	19 f0       	breq	.+6      	; 0x2fcc <malloc+0x40>
    2fc6:	9b 83       	std	Y+3, r25	; 0x03
    2fc8:	8a 83       	std	Y+2, r24	; 0x02
    2fca:	2b c0       	rjmp	.+86     	; 0x3022 <malloc+0x96>
    2fcc:	90 93 18 01 	sts	0x0118, r25	; 0x800118 <__flp+0x1>
    2fd0:	80 93 17 01 	sts	0x0117, r24	; 0x800117 <__flp>
    2fd4:	26 c0       	rjmp	.+76     	; 0x3022 <malloc+0x96>
    2fd6:	21 15       	cp	r18, r1
    2fd8:	31 05       	cpc	r19, r1
    2fda:	19 f0       	breq	.+6      	; 0x2fe2 <malloc+0x56>
    2fdc:	42 17       	cp	r20, r18
    2fde:	53 07       	cpc	r21, r19
    2fe0:	18 f4       	brcc	.+6      	; 0x2fe8 <malloc+0x5c>
    2fe2:	9a 01       	movw	r18, r20
    2fe4:	be 01       	movw	r22, r28
    2fe6:	df 01       	movw	r26, r30
    2fe8:	ef 01       	movw	r28, r30
    2fea:	02 80       	ldd	r0, Z+2	; 0x02
    2fec:	f3 81       	ldd	r31, Z+3	; 0x03
    2fee:	e0 2d       	mov	r30, r0
    2ff0:	dc cf       	rjmp	.-72     	; 0x2faa <malloc+0x1e>
    2ff2:	21 15       	cp	r18, r1
    2ff4:	31 05       	cpc	r19, r1
    2ff6:	09 f1       	breq	.+66     	; 0x303a <malloc+0xae>
    2ff8:	28 1b       	sub	r18, r24
    2ffa:	39 0b       	sbc	r19, r25
    2ffc:	24 30       	cpi	r18, 0x04	; 4
    2ffe:	31 05       	cpc	r19, r1
    3000:	90 f4       	brcc	.+36     	; 0x3026 <malloc+0x9a>
    3002:	12 96       	adiw	r26, 0x02	; 2
    3004:	8d 91       	ld	r24, X+
    3006:	9c 91       	ld	r25, X
    3008:	13 97       	sbiw	r26, 0x03	; 3
    300a:	61 15       	cp	r22, r1
    300c:	71 05       	cpc	r23, r1
    300e:	21 f0       	breq	.+8      	; 0x3018 <malloc+0x8c>
    3010:	fb 01       	movw	r30, r22
    3012:	93 83       	std	Z+3, r25	; 0x03
    3014:	82 83       	std	Z+2, r24	; 0x02
    3016:	04 c0       	rjmp	.+8      	; 0x3020 <malloc+0x94>
    3018:	90 93 18 01 	sts	0x0118, r25	; 0x800118 <__flp+0x1>
    301c:	80 93 17 01 	sts	0x0117, r24	; 0x800117 <__flp>
    3020:	fd 01       	movw	r30, r26
    3022:	32 96       	adiw	r30, 0x02	; 2
    3024:	44 c0       	rjmp	.+136    	; 0x30ae <malloc+0x122>
    3026:	fd 01       	movw	r30, r26
    3028:	e2 0f       	add	r30, r18
    302a:	f3 1f       	adc	r31, r19
    302c:	81 93       	st	Z+, r24
    302e:	91 93       	st	Z+, r25
    3030:	22 50       	subi	r18, 0x02	; 2
    3032:	31 09       	sbc	r19, r1
    3034:	2d 93       	st	X+, r18
    3036:	3c 93       	st	X, r19
    3038:	3a c0       	rjmp	.+116    	; 0x30ae <malloc+0x122>
    303a:	20 91 15 01 	lds	r18, 0x0115	; 0x800115 <__brkval>
    303e:	30 91 16 01 	lds	r19, 0x0116	; 0x800116 <__brkval+0x1>
    3042:	23 2b       	or	r18, r19
    3044:	41 f4       	brne	.+16     	; 0x3056 <malloc+0xca>
    3046:	20 91 62 00 	lds	r18, 0x0062	; 0x800062 <__malloc_heap_start>
    304a:	30 91 63 00 	lds	r19, 0x0063	; 0x800063 <__malloc_heap_start+0x1>
    304e:	30 93 16 01 	sts	0x0116, r19	; 0x800116 <__brkval+0x1>
    3052:	20 93 15 01 	sts	0x0115, r18	; 0x800115 <__brkval>
    3056:	20 91 60 00 	lds	r18, 0x0060	; 0x800060 <__data_start>
    305a:	30 91 61 00 	lds	r19, 0x0061	; 0x800061 <__data_start+0x1>
    305e:	21 15       	cp	r18, r1
    3060:	31 05       	cpc	r19, r1
    3062:	41 f4       	brne	.+16     	; 0x3074 <malloc+0xe8>
    3064:	2d b7       	in	r18, 0x3d	; 61
    3066:	3e b7       	in	r19, 0x3e	; 62
    3068:	40 91 64 00 	lds	r20, 0x0064	; 0x800064 <__malloc_margin>
    306c:	50 91 65 00 	lds	r21, 0x0065	; 0x800065 <__malloc_margin+0x1>
    3070:	24 1b       	sub	r18, r20
    3072:	35 0b       	sbc	r19, r21
    3074:	e0 91 15 01 	lds	r30, 0x0115	; 0x800115 <__brkval>
    3078:	f0 91 16 01 	lds	r31, 0x0116	; 0x800116 <__brkval+0x1>
    307c:	e2 17       	cp	r30, r18
    307e:	f3 07       	cpc	r31, r19
    3080:	a0 f4       	brcc	.+40     	; 0x30aa <malloc+0x11e>
    3082:	2e 1b       	sub	r18, r30
    3084:	3f 0b       	sbc	r19, r31
    3086:	28 17       	cp	r18, r24
    3088:	39 07       	cpc	r19, r25
    308a:	78 f0       	brcs	.+30     	; 0x30aa <malloc+0x11e>
    308c:	ac 01       	movw	r20, r24
    308e:	4e 5f       	subi	r20, 0xFE	; 254
    3090:	5f 4f       	sbci	r21, 0xFF	; 255
    3092:	24 17       	cp	r18, r20
    3094:	35 07       	cpc	r19, r21
    3096:	48 f0       	brcs	.+18     	; 0x30aa <malloc+0x11e>
    3098:	4e 0f       	add	r20, r30
    309a:	5f 1f       	adc	r21, r31
    309c:	50 93 16 01 	sts	0x0116, r21	; 0x800116 <__brkval+0x1>
    30a0:	40 93 15 01 	sts	0x0115, r20	; 0x800115 <__brkval>
    30a4:	81 93       	st	Z+, r24
    30a6:	91 93       	st	Z+, r25
    30a8:	02 c0       	rjmp	.+4      	; 0x30ae <malloc+0x122>
    30aa:	e0 e0       	ldi	r30, 0x00	; 0
    30ac:	f0 e0       	ldi	r31, 0x00	; 0
    30ae:	cf 01       	movw	r24, r30
    30b0:	df 91       	pop	r29
    30b2:	cf 91       	pop	r28
    30b4:	08 95       	ret

000030b6 <free>:
    30b6:	0f 93       	push	r16
    30b8:	1f 93       	push	r17
    30ba:	cf 93       	push	r28
    30bc:	df 93       	push	r29
    30be:	00 97       	sbiw	r24, 0x00	; 0
    30c0:	09 f4       	brne	.+2      	; 0x30c4 <free+0xe>
    30c2:	8c c0       	rjmp	.+280    	; 0x31dc <free+0x126>
    30c4:	fc 01       	movw	r30, r24
    30c6:	32 97       	sbiw	r30, 0x02	; 2
    30c8:	13 82       	std	Z+3, r1	; 0x03
    30ca:	12 82       	std	Z+2, r1	; 0x02
    30cc:	00 91 17 01 	lds	r16, 0x0117	; 0x800117 <__flp>
    30d0:	10 91 18 01 	lds	r17, 0x0118	; 0x800118 <__flp+0x1>
    30d4:	01 15       	cp	r16, r1
    30d6:	11 05       	cpc	r17, r1
    30d8:	81 f4       	brne	.+32     	; 0x30fa <free+0x44>
    30da:	20 81       	ld	r18, Z
    30dc:	31 81       	ldd	r19, Z+1	; 0x01
    30de:	82 0f       	add	r24, r18
    30e0:	93 1f       	adc	r25, r19
    30e2:	20 91 15 01 	lds	r18, 0x0115	; 0x800115 <__brkval>
    30e6:	30 91 16 01 	lds	r19, 0x0116	; 0x800116 <__brkval+0x1>
    30ea:	28 17       	cp	r18, r24
    30ec:	39 07       	cpc	r19, r25
    30ee:	79 f5       	brne	.+94     	; 0x314e <free+0x98>
    30f0:	f0 93 16 01 	sts	0x0116, r31	; 0x800116 <__brkval+0x1>
    30f4:	e0 93 15 01 	sts	0x0115, r30	; 0x800115 <__brkval>
    30f8:	71 c0       	rjmp	.+226    	; 0x31dc <free+0x126>
    30fa:	d8 01       	movw	r26, r16
    30fc:	40 e0       	ldi	r20, 0x00	; 0
    30fe:	50 e0       	ldi	r21, 0x00	; 0
    3100:	ae 17       	cp	r26, r30
    3102:	bf 07       	cpc	r27, r31
    3104:	50 f4       	brcc	.+20     	; 0x311a <free+0x64>
    3106:	12 96       	adiw	r26, 0x02	; 2
    3108:	2d 91       	ld	r18, X+
    310a:	3c 91       	ld	r19, X
    310c:	13 97       	sbiw	r26, 0x03	; 3
    310e:	ad 01       	movw	r20, r26
    3110:	21 15       	cp	r18, r1
    3112:	31 05       	cpc	r19, r1
    3114:	09 f1       	breq	.+66     	; 0x3158 <free+0xa2>
    3116:	d9 01       	movw	r26, r18
    3118:	f3 cf       	rjmp	.-26     	; 0x3100 <free+0x4a>
    311a:	9d 01       	movw	r18, r26
    311c:	da 01       	movw	r26, r20
    311e:	33 83       	std	Z+3, r19	; 0x03
    3120:	22 83       	std	Z+2, r18	; 0x02
    3122:	60 81       	ld	r22, Z
    3124:	71 81       	ldd	r23, Z+1	; 0x01
    3126:	86 0f       	add	r24, r22
    3128:	97 1f       	adc	r25, r23
    312a:	82 17       	cp	r24, r18
    312c:	93 07       	cpc	r25, r19
    312e:	69 f4       	brne	.+26     	; 0x314a <free+0x94>
    3130:	ec 01       	movw	r28, r24
    3132:	28 81       	ld	r18, Y
    3134:	39 81       	ldd	r19, Y+1	; 0x01
    3136:	26 0f       	add	r18, r22
    3138:	37 1f       	adc	r19, r23
    313a:	2e 5f       	subi	r18, 0xFE	; 254
    313c:	3f 4f       	sbci	r19, 0xFF	; 255
    313e:	31 83       	std	Z+1, r19	; 0x01
    3140:	20 83       	st	Z, r18
    3142:	8a 81       	ldd	r24, Y+2	; 0x02
    3144:	9b 81       	ldd	r25, Y+3	; 0x03
    3146:	93 83       	std	Z+3, r25	; 0x03
    3148:	82 83       	std	Z+2, r24	; 0x02
    314a:	45 2b       	or	r20, r21
    314c:	29 f4       	brne	.+10     	; 0x3158 <free+0xa2>
    314e:	f0 93 18 01 	sts	0x0118, r31	; 0x800118 <__flp+0x1>
    3152:	e0 93 17 01 	sts	0x0117, r30	; 0x800117 <__flp>
    3156:	42 c0       	rjmp	.+132    	; 0x31dc <free+0x126>
    3158:	13 96       	adiw	r26, 0x03	; 3
    315a:	fc 93       	st	X, r31
    315c:	ee 93       	st	-X, r30
    315e:	12 97       	sbiw	r26, 0x02	; 2
    3160:	ed 01       	movw	r28, r26
    3162:	49 91       	ld	r20, Y+
    3164:	59 91       	ld	r21, Y+
    3166:	9e 01       	movw	r18, r28
    3168:	24 0f       	add	r18, r20
    316a:	35 1f       	adc	r19, r21
    316c:	e2 17       	cp	r30, r18
    316e:	f3 07       	cpc	r31, r19
    3170:	71 f4       	brne	.+28     	; 0x318e <free+0xd8>
    3172:	80 81       	ld	r24, Z
    3174:	91 81       	ldd	r25, Z+1	; 0x01
    3176:	84 0f       	add	r24, r20
    3178:	95 1f       	adc	r25, r21
    317a:	02 96       	adiw	r24, 0x02	; 2
    317c:	11 96       	adiw	r26, 0x01	; 1
    317e:	9c 93       	st	X, r25
    3180:	8e 93       	st	-X, r24
    3182:	82 81       	ldd	r24, Z+2	; 0x02
    3184:	93 81       	ldd	r25, Z+3	; 0x03
    3186:	13 96       	adiw	r26, 0x03	; 3
    3188:	9c 93       	st	X, r25
    318a:	8e 93       	st	-X, r24
    318c:	12 97       	sbiw	r26, 0x02	; 2
    318e:	e0 e0       	ldi	r30, 0x00	; 0
    3190:	f0 e0       	ldi	r31, 0x00	; 0
    3192:	d8 01       	movw	r26, r16
    3194:	12 96       	adiw	r26, 0x02	; 2
    3196:	8d 91       	ld	r24, X+
    3198:	9c 91       	ld	r25, X
    319a:	13 97       	sbiw	r26, 0x03	; 3
    319c:	00 97       	sbiw	r24, 0x00	; 0
    319e:	19 f0       	breq	.+6      	; 0x31a6 <free+0xf0>
    31a0:	f8 01       	movw	r30, r16
    31a2:	8c 01       	movw	r16, r24
    31a4:	f6 cf       	rjmp	.-20     	; 0x3192 <free+0xdc>
    31a6:	8d 91       	ld	r24, X+
    31a8:	9c 91       	ld	r25, X
    31aa:	98 01       	movw	r18, r16
    31ac:	2e 5f       	subi	r18, 0xFE	; 254
    31ae:	3f 4f       	sbci	r19, 0xFF	; 255
    31b0:	82 0f       	add	r24, r18
    31b2:	93 1f       	adc	r25, r19
    31b4:	20 91 15 01 	lds	r18, 0x0115	; 0x800115 <__brkval>
    31b8:	30 91 16 01 	lds	r19, 0x0116	; 0x800116 <__brkval+0x1>
    31bc:	28 17       	cp	r18, r24
    31be:	39 07       	cpc	r19, r25
    31c0:	69 f4       	brne	.+26     	; 0x31dc <free+0x126>
    31c2:	30 97       	sbiw	r30, 0x00	; 0
    31c4:	29 f4       	brne	.+10     	; 0x31d0 <free+0x11a>
    31c6:	10 92 18 01 	sts	0x0118, r1	; 0x800118 <__flp+0x1>
    31ca:	10 92 17 01 	sts	0x0117, r1	; 0x800117 <__flp>
    31ce:	02 c0       	rjmp	.+4      	; 0x31d4 <free+0x11e>
    31d0:	13 82       	std	Z+3, r1	; 0x03
    31d2:	12 82       	std	Z+2, r1	; 0x02
    31d4:	10 93 16 01 	sts	0x0116, r17	; 0x800116 <__brkval+0x1>
    31d8:	00 93 15 01 	sts	0x0115, r16	; 0x800115 <__brkval>
    31dc:	df 91       	pop	r29
    31de:	cf 91       	pop	r28
    31e0:	1f 91       	pop	r17
    31e2:	0f 91       	pop	r16
    31e4:	08 95       	ret

000031e6 <do_rand>:
    31e6:	8f 92       	push	r8
    31e8:	9f 92       	push	r9
    31ea:	af 92       	push	r10
    31ec:	bf 92       	push	r11
    31ee:	cf 92       	push	r12
    31f0:	df 92       	push	r13
    31f2:	ef 92       	push	r14
    31f4:	ff 92       	push	r15
    31f6:	cf 93       	push	r28
    31f8:	df 93       	push	r29
    31fa:	ec 01       	movw	r28, r24
    31fc:	68 81       	ld	r22, Y
    31fe:	79 81       	ldd	r23, Y+1	; 0x01
    3200:	8a 81       	ldd	r24, Y+2	; 0x02
    3202:	9b 81       	ldd	r25, Y+3	; 0x03
    3204:	61 15       	cp	r22, r1
    3206:	71 05       	cpc	r23, r1
    3208:	81 05       	cpc	r24, r1
    320a:	91 05       	cpc	r25, r1
    320c:	21 f4       	brne	.+8      	; 0x3216 <do_rand+0x30>
    320e:	64 e2       	ldi	r22, 0x24	; 36
    3210:	79 ed       	ldi	r23, 0xD9	; 217
    3212:	8b e5       	ldi	r24, 0x5B	; 91
    3214:	97 e0       	ldi	r25, 0x07	; 7
    3216:	2d e1       	ldi	r18, 0x1D	; 29
    3218:	33 ef       	ldi	r19, 0xF3	; 243
    321a:	41 e0       	ldi	r20, 0x01	; 1
    321c:	50 e0       	ldi	r21, 0x00	; 0
    321e:	0e 94 22 1a 	call	0x3444	; 0x3444 <__divmodsi4>
    3222:	49 01       	movw	r8, r18
    3224:	5a 01       	movw	r10, r20
    3226:	9b 01       	movw	r18, r22
    3228:	ac 01       	movw	r20, r24
    322a:	a7 ea       	ldi	r26, 0xA7	; 167
    322c:	b1 e4       	ldi	r27, 0x41	; 65
    322e:	0e 94 cf 14 	call	0x299e	; 0x299e <__muluhisi3>
    3232:	6b 01       	movw	r12, r22
    3234:	7c 01       	movw	r14, r24
    3236:	ac ee       	ldi	r26, 0xEC	; 236
    3238:	b4 ef       	ldi	r27, 0xF4	; 244
    323a:	a5 01       	movw	r20, r10
    323c:	94 01       	movw	r18, r8
    323e:	0e 94 44 1a 	call	0x3488	; 0x3488 <__mulohisi3>
    3242:	dc 01       	movw	r26, r24
    3244:	cb 01       	movw	r24, r22
    3246:	8c 0d       	add	r24, r12
    3248:	9d 1d       	adc	r25, r13
    324a:	ae 1d       	adc	r26, r14
    324c:	bf 1d       	adc	r27, r15
    324e:	b7 ff       	sbrs	r27, 7
    3250:	03 c0       	rjmp	.+6      	; 0x3258 <do_rand+0x72>
    3252:	01 97       	sbiw	r24, 0x01	; 1
    3254:	a1 09       	sbc	r26, r1
    3256:	b0 48       	sbci	r27, 0x80	; 128
    3258:	88 83       	st	Y, r24
    325a:	99 83       	std	Y+1, r25	; 0x01
    325c:	aa 83       	std	Y+2, r26	; 0x02
    325e:	bb 83       	std	Y+3, r27	; 0x03
    3260:	9f 77       	andi	r25, 0x7F	; 127
    3262:	df 91       	pop	r29
    3264:	cf 91       	pop	r28
    3266:	ff 90       	pop	r15
    3268:	ef 90       	pop	r14
    326a:	df 90       	pop	r13
    326c:	cf 90       	pop	r12
    326e:	bf 90       	pop	r11
    3270:	af 90       	pop	r10
    3272:	9f 90       	pop	r9
    3274:	8f 90       	pop	r8
    3276:	08 95       	ret

00003278 <rand_r>:
    3278:	0e 94 f3 18 	call	0x31e6	; 0x31e6 <do_rand>
    327c:	08 95       	ret

0000327e <rand>:
    327e:	86 e6       	ldi	r24, 0x66	; 102
    3280:	90 e0       	ldi	r25, 0x00	; 0
    3282:	0e 94 f3 18 	call	0x31e6	; 0x31e6 <do_rand>
    3286:	08 95       	ret

00003288 <srand>:
    3288:	a0 e0       	ldi	r26, 0x00	; 0
    328a:	b0 e0       	ldi	r27, 0x00	; 0
    328c:	80 93 66 00 	sts	0x0066, r24	; 0x800066 <next>
    3290:	90 93 67 00 	sts	0x0067, r25	; 0x800067 <next+0x1>
    3294:	a0 93 68 00 	sts	0x0068, r26	; 0x800068 <next+0x2>
    3298:	b0 93 69 00 	sts	0x0069, r27	; 0x800069 <next+0x3>
    329c:	08 95       	ret

0000329e <realloc>:
    329e:	a0 e0       	ldi	r26, 0x00	; 0
    32a0:	b0 e0       	ldi	r27, 0x00	; 0
    32a2:	e5 e5       	ldi	r30, 0x55	; 85
    32a4:	f9 e1       	ldi	r31, 0x19	; 25
    32a6:	0c 94 4d 1a 	jmp	0x349a	; 0x349a <__prologue_saves__+0x8>
    32aa:	ec 01       	movw	r28, r24
    32ac:	00 97       	sbiw	r24, 0x00	; 0
    32ae:	21 f4       	brne	.+8      	; 0x32b8 <realloc+0x1a>
    32b0:	cb 01       	movw	r24, r22
    32b2:	0e 94 c6 17 	call	0x2f8c	; 0x2f8c <malloc>
    32b6:	b8 c0       	rjmp	.+368    	; 0x3428 <realloc+0x18a>
    32b8:	fc 01       	movw	r30, r24
    32ba:	e6 0f       	add	r30, r22
    32bc:	f7 1f       	adc	r31, r23
    32be:	9c 01       	movw	r18, r24
    32c0:	22 50       	subi	r18, 0x02	; 2
    32c2:	31 09       	sbc	r19, r1
    32c4:	e2 17       	cp	r30, r18
    32c6:	f3 07       	cpc	r31, r19
    32c8:	08 f4       	brcc	.+2      	; 0x32cc <realloc+0x2e>
    32ca:	ac c0       	rjmp	.+344    	; 0x3424 <realloc+0x186>
    32cc:	d9 01       	movw	r26, r18
    32ce:	0d 91       	ld	r16, X+
    32d0:	1c 91       	ld	r17, X
    32d2:	11 97       	sbiw	r26, 0x01	; 1
    32d4:	06 17       	cp	r16, r22
    32d6:	17 07       	cpc	r17, r23
    32d8:	b0 f0       	brcs	.+44     	; 0x3306 <realloc+0x68>
    32da:	05 30       	cpi	r16, 0x05	; 5
    32dc:	11 05       	cpc	r17, r1
    32de:	08 f4       	brcc	.+2      	; 0x32e2 <realloc+0x44>
    32e0:	9f c0       	rjmp	.+318    	; 0x3420 <realloc+0x182>
    32e2:	c8 01       	movw	r24, r16
    32e4:	04 97       	sbiw	r24, 0x04	; 4
    32e6:	86 17       	cp	r24, r22
    32e8:	97 07       	cpc	r25, r23
    32ea:	08 f4       	brcc	.+2      	; 0x32ee <realloc+0x50>
    32ec:	99 c0       	rjmp	.+306    	; 0x3420 <realloc+0x182>
    32ee:	02 50       	subi	r16, 0x02	; 2
    32f0:	11 09       	sbc	r17, r1
    32f2:	06 1b       	sub	r16, r22
    32f4:	17 0b       	sbc	r17, r23
    32f6:	01 93       	st	Z+, r16
    32f8:	11 93       	st	Z+, r17
    32fa:	6d 93       	st	X+, r22
    32fc:	7c 93       	st	X, r23
    32fe:	cf 01       	movw	r24, r30
    3300:	0e 94 5b 18 	call	0x30b6	; 0x30b6 <free>
    3304:	8d c0       	rjmp	.+282    	; 0x3420 <realloc+0x182>
    3306:	5b 01       	movw	r10, r22
    3308:	a0 1a       	sub	r10, r16
    330a:	b1 0a       	sbc	r11, r17
    330c:	4c 01       	movw	r8, r24
    330e:	80 0e       	add	r8, r16
    3310:	91 1e       	adc	r9, r17
    3312:	a0 91 17 01 	lds	r26, 0x0117	; 0x800117 <__flp>
    3316:	b0 91 18 01 	lds	r27, 0x0118	; 0x800118 <__flp+0x1>
    331a:	40 e0       	ldi	r20, 0x00	; 0
    331c:	50 e0       	ldi	r21, 0x00	; 0
    331e:	e1 2c       	mov	r14, r1
    3320:	f1 2c       	mov	r15, r1
    3322:	10 97       	sbiw	r26, 0x00	; 0
    3324:	09 f4       	brne	.+2      	; 0x3328 <realloc+0x8a>
    3326:	4a c0       	rjmp	.+148    	; 0x33bc <realloc+0x11e>
    3328:	a8 15       	cp	r26, r8
    332a:	b9 05       	cpc	r27, r9
    332c:	d1 f5       	brne	.+116    	; 0x33a2 <realloc+0x104>
    332e:	6d 90       	ld	r6, X+
    3330:	7c 90       	ld	r7, X
    3332:	11 97       	sbiw	r26, 0x01	; 1
    3334:	63 01       	movw	r12, r6
    3336:	82 e0       	ldi	r24, 0x02	; 2
    3338:	c8 0e       	add	r12, r24
    333a:	d1 1c       	adc	r13, r1
    333c:	ca 14       	cp	r12, r10
    333e:	db 04       	cpc	r13, r11
    3340:	80 f1       	brcs	.+96     	; 0x33a2 <realloc+0x104>
    3342:	a3 01       	movw	r20, r6
    3344:	4a 19       	sub	r20, r10
    3346:	5b 09       	sbc	r21, r11
    3348:	6a 01       	movw	r12, r20
    334a:	82 e0       	ldi	r24, 0x02	; 2
    334c:	c8 0e       	add	r12, r24
    334e:	d1 1c       	adc	r13, r1
    3350:	12 96       	adiw	r26, 0x02	; 2
    3352:	bc 90       	ld	r11, X
    3354:	12 97       	sbiw	r26, 0x02	; 2
    3356:	13 96       	adiw	r26, 0x03	; 3
    3358:	ac 91       	ld	r26, X
    335a:	b5 e0       	ldi	r27, 0x05	; 5
    335c:	cb 16       	cp	r12, r27
    335e:	d1 04       	cpc	r13, r1
    3360:	40 f0       	brcs	.+16     	; 0x3372 <realloc+0xd4>
    3362:	b2 82       	std	Z+2, r11	; 0x02
    3364:	a3 83       	std	Z+3, r26	; 0x03
    3366:	51 83       	std	Z+1, r21	; 0x01
    3368:	40 83       	st	Z, r20
    336a:	d9 01       	movw	r26, r18
    336c:	6d 93       	st	X+, r22
    336e:	7c 93       	st	X, r23
    3370:	0a c0       	rjmp	.+20     	; 0x3386 <realloc+0xe8>
    3372:	0e 5f       	subi	r16, 0xFE	; 254
    3374:	1f 4f       	sbci	r17, 0xFF	; 255
    3376:	c3 01       	movw	r24, r6
    3378:	80 0f       	add	r24, r16
    337a:	91 1f       	adc	r25, r17
    337c:	f9 01       	movw	r30, r18
    337e:	91 83       	std	Z+1, r25	; 0x01
    3380:	80 83       	st	Z, r24
    3382:	eb 2d       	mov	r30, r11
    3384:	fa 2f       	mov	r31, r26
    3386:	e1 14       	cp	r14, r1
    3388:	f1 04       	cpc	r15, r1
    338a:	31 f0       	breq	.+12     	; 0x3398 <realloc+0xfa>
    338c:	d7 01       	movw	r26, r14
    338e:	13 96       	adiw	r26, 0x03	; 3
    3390:	fc 93       	st	X, r31
    3392:	ee 93       	st	-X, r30
    3394:	12 97       	sbiw	r26, 0x02	; 2
    3396:	44 c0       	rjmp	.+136    	; 0x3420 <realloc+0x182>
    3398:	f0 93 18 01 	sts	0x0118, r31	; 0x800118 <__flp+0x1>
    339c:	e0 93 17 01 	sts	0x0117, r30	; 0x800117 <__flp>
    33a0:	3f c0       	rjmp	.+126    	; 0x3420 <realloc+0x182>
    33a2:	8d 91       	ld	r24, X+
    33a4:	9c 91       	ld	r25, X
    33a6:	11 97       	sbiw	r26, 0x01	; 1
    33a8:	48 17       	cp	r20, r24
    33aa:	59 07       	cpc	r21, r25
    33ac:	08 f4       	brcc	.+2      	; 0x33b0 <realloc+0x112>
    33ae:	ac 01       	movw	r20, r24
    33b0:	7d 01       	movw	r14, r26
    33b2:	12 96       	adiw	r26, 0x02	; 2
    33b4:	0d 90       	ld	r0, X+
    33b6:	bc 91       	ld	r27, X
    33b8:	a0 2d       	mov	r26, r0
    33ba:	b3 cf       	rjmp	.-154    	; 0x3322 <realloc+0x84>
    33bc:	80 91 15 01 	lds	r24, 0x0115	; 0x800115 <__brkval>
    33c0:	90 91 16 01 	lds	r25, 0x0116	; 0x800116 <__brkval+0x1>
    33c4:	88 15       	cp	r24, r8
    33c6:	99 05       	cpc	r25, r9
    33c8:	e1 f4       	brne	.+56     	; 0x3402 <realloc+0x164>
    33ca:	46 17       	cp	r20, r22
    33cc:	57 07       	cpc	r21, r23
    33ce:	c8 f4       	brcc	.+50     	; 0x3402 <realloc+0x164>
    33d0:	80 91 60 00 	lds	r24, 0x0060	; 0x800060 <__data_start>
    33d4:	90 91 61 00 	lds	r25, 0x0061	; 0x800061 <__data_start+0x1>
    33d8:	00 97       	sbiw	r24, 0x00	; 0
    33da:	41 f4       	brne	.+16     	; 0x33ec <realloc+0x14e>
    33dc:	8d b7       	in	r24, 0x3d	; 61
    33de:	9e b7       	in	r25, 0x3e	; 62
    33e0:	40 91 64 00 	lds	r20, 0x0064	; 0x800064 <__malloc_margin>
    33e4:	50 91 65 00 	lds	r21, 0x0065	; 0x800065 <__malloc_margin+0x1>
    33e8:	84 1b       	sub	r24, r20
    33ea:	95 0b       	sbc	r25, r21
    33ec:	e8 17       	cp	r30, r24
    33ee:	f9 07       	cpc	r31, r25
    33f0:	c8 f4       	brcc	.+50     	; 0x3424 <realloc+0x186>
    33f2:	f0 93 16 01 	sts	0x0116, r31	; 0x800116 <__brkval+0x1>
    33f6:	e0 93 15 01 	sts	0x0115, r30	; 0x800115 <__brkval>
    33fa:	f9 01       	movw	r30, r18
    33fc:	71 83       	std	Z+1, r23	; 0x01
    33fe:	60 83       	st	Z, r22
    3400:	0f c0       	rjmp	.+30     	; 0x3420 <realloc+0x182>
    3402:	cb 01       	movw	r24, r22
    3404:	0e 94 c6 17 	call	0x2f8c	; 0x2f8c <malloc>
    3408:	7c 01       	movw	r14, r24
    340a:	00 97       	sbiw	r24, 0x00	; 0
    340c:	59 f0       	breq	.+22     	; 0x3424 <realloc+0x186>
    340e:	a8 01       	movw	r20, r16
    3410:	be 01       	movw	r22, r28
    3412:	0e 94 19 1a 	call	0x3432	; 0x3432 <memcpy>
    3416:	ce 01       	movw	r24, r28
    3418:	0e 94 5b 18 	call	0x30b6	; 0x30b6 <free>
    341c:	c7 01       	movw	r24, r14
    341e:	04 c0       	rjmp	.+8      	; 0x3428 <realloc+0x18a>
    3420:	ce 01       	movw	r24, r28
    3422:	02 c0       	rjmp	.+4      	; 0x3428 <realloc+0x18a>
    3424:	80 e0       	ldi	r24, 0x00	; 0
    3426:	90 e0       	ldi	r25, 0x00	; 0
    3428:	cd b7       	in	r28, 0x3d	; 61
    342a:	de b7       	in	r29, 0x3e	; 62
    342c:	ee e0       	ldi	r30, 0x0E	; 14
    342e:	0c 94 69 1a 	jmp	0x34d2	; 0x34d2 <__epilogue_restores__+0x8>

00003432 <memcpy>:
    3432:	fb 01       	movw	r30, r22
    3434:	dc 01       	movw	r26, r24
    3436:	02 c0       	rjmp	.+4      	; 0x343c <memcpy+0xa>
    3438:	01 90       	ld	r0, Z+
    343a:	0d 92       	st	X+, r0
    343c:	41 50       	subi	r20, 0x01	; 1
    343e:	50 40       	sbci	r21, 0x00	; 0
    3440:	d8 f7       	brcc	.-10     	; 0x3438 <memcpy+0x6>
    3442:	08 95       	ret

00003444 <__divmodsi4>:
    3444:	05 2e       	mov	r0, r21
    3446:	97 fb       	bst	r25, 7
    3448:	1e f4       	brtc	.+6      	; 0x3450 <__divmodsi4+0xc>
    344a:	00 94       	com	r0
    344c:	0e 94 39 1a 	call	0x3472	; 0x3472 <__negsi2>
    3450:	57 fd       	sbrc	r21, 7
    3452:	07 d0       	rcall	.+14     	; 0x3462 <__divmodsi4_neg2>
    3454:	0e 94 a7 14 	call	0x294e	; 0x294e <__udivmodsi4>
    3458:	07 fc       	sbrc	r0, 7
    345a:	03 d0       	rcall	.+6      	; 0x3462 <__divmodsi4_neg2>
    345c:	4e f4       	brtc	.+18     	; 0x3470 <__divmodsi4_exit>
    345e:	0c 94 39 1a 	jmp	0x3472	; 0x3472 <__negsi2>

00003462 <__divmodsi4_neg2>:
    3462:	50 95       	com	r21
    3464:	40 95       	com	r20
    3466:	30 95       	com	r19
    3468:	21 95       	neg	r18
    346a:	3f 4f       	sbci	r19, 0xFF	; 255
    346c:	4f 4f       	sbci	r20, 0xFF	; 255
    346e:	5f 4f       	sbci	r21, 0xFF	; 255

00003470 <__divmodsi4_exit>:
    3470:	08 95       	ret

00003472 <__negsi2>:
    3472:	90 95       	com	r25
    3474:	80 95       	com	r24
    3476:	70 95       	com	r23
    3478:	61 95       	neg	r22
    347a:	7f 4f       	sbci	r23, 0xFF	; 255
    347c:	8f 4f       	sbci	r24, 0xFF	; 255
    347e:	9f 4f       	sbci	r25, 0xFF	; 255
    3480:	08 95       	ret

00003482 <__mulshisi3>:
    3482:	b7 ff       	sbrs	r27, 7
    3484:	0c 94 cf 14 	jmp	0x299e	; 0x299e <__muluhisi3>

00003488 <__mulohisi3>:
    3488:	0e 94 cf 14 	call	0x299e	; 0x299e <__muluhisi3>
    348c:	82 1b       	sub	r24, r18
    348e:	93 0b       	sbc	r25, r19
    3490:	08 95       	ret

00003492 <__prologue_saves__>:
    3492:	2f 92       	push	r2
    3494:	3f 92       	push	r3
    3496:	4f 92       	push	r4
    3498:	5f 92       	push	r5
    349a:	6f 92       	push	r6
    349c:	7f 92       	push	r7
    349e:	8f 92       	push	r8
    34a0:	9f 92       	push	r9
    34a2:	af 92       	push	r10
    34a4:	bf 92       	push	r11
    34a6:	cf 92       	push	r12
    34a8:	df 92       	push	r13
    34aa:	ef 92       	push	r14
    34ac:	ff 92       	push	r15
    34ae:	0f 93       	push	r16
    34b0:	1f 93       	push	r17
    34b2:	cf 93       	push	r28
    34b4:	df 93       	push	r29
    34b6:	cd b7       	in	r28, 0x3d	; 61
    34b8:	de b7       	in	r29, 0x3e	; 62
    34ba:	ca 1b       	sub	r28, r26
    34bc:	db 0b       	sbc	r29, r27
    34be:	0f b6       	in	r0, 0x3f	; 63
    34c0:	f8 94       	cli
    34c2:	de bf       	out	0x3e, r29	; 62
    34c4:	0f be       	out	0x3f, r0	; 63
    34c6:	cd bf       	out	0x3d, r28	; 61
    34c8:	09 94       	ijmp

000034ca <__epilogue_restores__>:
    34ca:	2a 88       	ldd	r2, Y+18	; 0x12
    34cc:	39 88       	ldd	r3, Y+17	; 0x11
    34ce:	48 88       	ldd	r4, Y+16	; 0x10
    34d0:	5f 84       	ldd	r5, Y+15	; 0x0f
    34d2:	6e 84       	ldd	r6, Y+14	; 0x0e
    34d4:	7d 84       	ldd	r7, Y+13	; 0x0d
    34d6:	8c 84       	ldd	r8, Y+12	; 0x0c
    34d8:	9b 84       	ldd	r9, Y+11	; 0x0b
    34da:	aa 84       	ldd	r10, Y+10	; 0x0a
    34dc:	b9 84       	ldd	r11, Y+9	; 0x09
    34de:	c8 84       	ldd	r12, Y+8	; 0x08
    34e0:	df 80       	ldd	r13, Y+7	; 0x07
    34e2:	ee 80       	ldd	r14, Y+6	; 0x06
    34e4:	fd 80       	ldd	r15, Y+5	; 0x05
    34e6:	0c 81       	ldd	r16, Y+4	; 0x04
    34e8:	1b 81       	ldd	r17, Y+3	; 0x03
    34ea:	aa 81       	ldd	r26, Y+2	; 0x02
    34ec:	b9 81       	ldd	r27, Y+1	; 0x01
    34ee:	ce 0f       	add	r28, r30
    34f0:	d1 1d       	adc	r29, r1
    34f2:	0f b6       	in	r0, 0x3f	; 63
    34f4:	f8 94       	cli
    34f6:	de bf       	out	0x3e, r29	; 62
    34f8:	0f be       	out	0x3f, r0	; 63
    34fa:	cd bf       	out	0x3d, r28	; 61
    34fc:	ed 01       	movw	r28, r26
    34fe:	08 95       	ret

00003500 <_exit>:
    3500:	f8 94       	cli

00003502 <__stop_program>:
    3502:	ff cf       	rjmp	.-2      	; 0x3502 <__stop_program>
